
AstroTool.elf:     формат файла elf32-avr

Разделы:
Инд Имя           Размер    VMA       LMA       Файл      Вырав
  0 .text         0000102a  00000000  00000000  00000094  2**1
                  CONTENTS, ALLOC, LOAD, READONLY, CODE
  1 .data         00000198  00800060  0000102a  000010be  2**0
                  CONTENTS, ALLOC, LOAD, DATA
  2 .bss          00000004  008001f8  008001f8  00001256  2**0
                  ALLOC
  3 .stab         000006cc  00000000  00000000  00001258  2**2
                  CONTENTS, READONLY, DEBUGGING
  4 .stabstr      00000054  00000000  00000000  00001924  2**0
                  CONTENTS, READONLY, DEBUGGING
  5 .comment      00000011  00000000  00000000  00001978  2**0
                  CONTENTS, READONLY

Дизассемблирование раздела .text:

00000000 <__vectors>:
       0:	19 c0       	rjmp	.+50     	; 0x34 <__ctors_end>
       2:	33 c0       	rjmp	.+102    	; 0x6a <__bad_interrupt>
       4:	32 c0       	rjmp	.+100    	; 0x6a <__bad_interrupt>
       6:	31 c0       	rjmp	.+98     	; 0x6a <__bad_interrupt>
       8:	93 c6       	rjmp	.+3366   	; 0xd30 <__vector_4>
       a:	2f c0       	rjmp	.+94     	; 0x6a <__bad_interrupt>
       c:	2e c0       	rjmp	.+92     	; 0x6a <__bad_interrupt>
       e:	2d c0       	rjmp	.+90     	; 0x6a <__bad_interrupt>
      10:	ee c5       	rjmp	.+3036   	; 0xbee <__vector_8>
      12:	2b c0       	rjmp	.+86     	; 0x6a <__bad_interrupt>
      14:	2a c0       	rjmp	.+84     	; 0x6a <__bad_interrupt>
      16:	29 c0       	rjmp	.+82     	; 0x6a <__bad_interrupt>
      18:	28 c0       	rjmp	.+80     	; 0x6a <__bad_interrupt>
      1a:	27 c0       	rjmp	.+78     	; 0x6a <__bad_interrupt>
      1c:	26 c0       	rjmp	.+76     	; 0x6a <__bad_interrupt>
      1e:	25 c0       	rjmp	.+74     	; 0x6a <__bad_interrupt>
      20:	24 c0       	rjmp	.+72     	; 0x6a <__bad_interrupt>
      22:	23 c0       	rjmp	.+70     	; 0x6a <__bad_interrupt>
      24:	22 c0       	rjmp	.+68     	; 0x6a <__bad_interrupt>
      26:	5d c2       	rjmp	.+1210   	; 0x4e2 <__stack+0x83>
      28:	1e c2       	rjmp	.+1084   	; 0x466 <__stack+0x7>
      2a:	c2 c1       	rjmp	.+900    	; 0x3b0 <_ZN11Application8MainMenuEv+0xaa>
      2c:	be c1       	rjmp	.+892    	; 0x3aa <_ZN11Application8MainMenuEv+0xa4>
      2e:	c3 c1       	rjmp	.+902    	; 0x3b6 <_ZN11Application8MainMenuEv+0xb0>
      30:	c5 c1       	rjmp	.+906    	; 0x3bc <_ZN11Application8MainMenuEv+0xb6>
      32:	f4 c1       	rjmp	.+1000   	; 0x41c <_ZN11Application8MainMenuEv+0x116>

00000034 <__ctors_end>:
      34:	11 24       	eor	r1, r1
      36:	1f be       	out	0x3f, r1	; 63
      38:	cf e5       	ldi	r28, 0x5F	; 95
      3a:	d4 e0       	ldi	r29, 0x04	; 4
      3c:	de bf       	out	0x3e, r29	; 62
      3e:	cd bf       	out	0x3d, r28	; 61

00000040 <__do_copy_data>:
      40:	11 e0       	ldi	r17, 0x01	; 1
      42:	a0 e6       	ldi	r26, 0x60	; 96
      44:	b0 e0       	ldi	r27, 0x00	; 0
      46:	ea e2       	ldi	r30, 0x2A	; 42
      48:	f0 e1       	ldi	r31, 0x10	; 16
      4a:	02 c0       	rjmp	.+4      	; 0x50 <__do_copy_data+0x10>
      4c:	05 90       	lpm	r0, Z+
      4e:	0d 92       	st	X+, r0
      50:	a8 3f       	cpi	r26, 0xF8	; 248
      52:	b1 07       	cpc	r27, r17
      54:	d9 f7       	brne	.-10     	; 0x4c <__do_copy_data+0xc>

00000056 <__do_clear_bss>:
      56:	11 e0       	ldi	r17, 0x01	; 1
      58:	a8 ef       	ldi	r26, 0xF8	; 248
      5a:	b1 e0       	ldi	r27, 0x01	; 1
      5c:	01 c0       	rjmp	.+2      	; 0x60 <.do_clear_bss_start>

0000005e <.do_clear_bss_loop>:
      5e:	1d 92       	st	X+, r1

00000060 <.do_clear_bss_start>:
      60:	ac 3f       	cpi	r26, 0xFC	; 252
      62:	b1 07       	cpc	r27, r17
      64:	e1 f7       	brne	.-8      	; 0x5e <.do_clear_bss_loop>
      66:	5d d7       	rcall	.+3770   	; 0xf22 <main>
      68:	de c7       	rjmp	.+4028   	; 0x1026 <_exit>

0000006a <__bad_interrupt>:
      6a:	ca cf       	rjmp	.-108    	; 0x0 <__vectors>

0000006c <_ZN8Keyboard14CheckConditionEhh.isra.0>:
      6c:	68 23       	and	r22, r24
      6e:	41 f0       	breq	.+16     	; 0x80 <_ZN8Keyboard14CheckConditionEhh.isra.0+0x14>
      70:	8f 70       	andi	r24, 0x0F	; 15
      72:	28 2f       	mov	r18, r24
      74:	30 e0       	ldi	r19, 0x00	; 0
      76:	50 e0       	ldi	r21, 0x00	; 0
      78:	81 e0       	ldi	r24, 0x01	; 1
      7a:	24 17       	cp	r18, r20
      7c:	35 07       	cpc	r19, r21
      7e:	09 f0       	breq	.+2      	; 0x82 <_ZN8Keyboard14CheckConditionEhh.isra.0+0x16>
      80:	80 e0       	ldi	r24, 0x00	; 0
      82:	08 95       	ret

00000084 <_ZN11ApplicationC1Ev>:
      84:	cf 93       	push	r28
      86:	df 93       	push	r29
      88:	ec 01       	movw	r28, r24
      8a:	d8 d5       	rcall	.+2992   	; 0xc3c <_ZN8IntervalC1Ev>
      8c:	be 01       	movw	r22, r28
      8e:	ce 01       	movw	r24, r28
      90:	44 96       	adiw	r24, 0x14	; 20
      92:	45 d3       	rcall	.+1674   	; 0x71e <_ZN7DisplayC1EP8Interval>
      94:	be 01       	movw	r22, r28
      96:	ce 01       	movw	r24, r28
      98:	4a 96       	adiw	r24, 0x1a	; 26
      9a:	71 d6       	rcall	.+3298   	; 0xd7e <_ZN8KeyboardC1EP8Interval>
      9c:	ce 01       	movw	r24, r28
      9e:	83 96       	adiw	r24, 0x23	; 35
      a0:	5c d2       	rcall	.+1208   	; 0x55a <_ZN7BatteryC1Ev>
      a2:	be 01       	movw	r22, r28
      a4:	ce 01       	movw	r24, r28
      a6:	84 96       	adiw	r24, 0x24	; 36
      a8:	ec d6       	rcall	.+3544   	; 0xe82 <_ZN7ShutterC1EP8Interval>
      aa:	ce 01       	movw	r24, r28
      ac:	8d 96       	adiw	r24, 0x2d	; 45
      ae:	df 91       	pop	r29
      b0:	cf 91       	pop	r28
      b2:	31 c5       	rjmp	.+2658   	; 0xb16 <_ZN5DriveC1Ev>

000000b4 <_ZN11Application13DrawDriveLineEh>:
      b4:	af 92       	push	r10
      b6:	bf 92       	push	r11
      b8:	cf 92       	push	r12
      ba:	df 92       	push	r13
      bc:	ef 92       	push	r14
      be:	ff 92       	push	r15
      c0:	0f 93       	push	r16
      c2:	1f 93       	push	r17
      c4:	cf 93       	push	r28
      c6:	df 93       	push	r29
      c8:	5c 01       	movw	r10, r24
      ca:	f6 2e       	mov	r15, r22
      cc:	66 23       	and	r22, r22
      ce:	31 f0       	breq	.+12     	; 0xdc <_ZN11Application13DrawDriveLineEh+0x28>
      d0:	81 e0       	ldi	r24, 0x01	; 1
      d2:	92 e0       	ldi	r25, 0x02	; 2
      d4:	69 13       	cpse	r22, r25
      d6:	80 e0       	ldi	r24, 0x00	; 0
      d8:	e8 2e       	mov	r14, r24
      da:	02 c0       	rjmp	.+4      	; 0xe0 <_ZN11Application13DrawDriveLineEh+0x2c>
      dc:	ee 24       	eor	r14, r14
      de:	e3 94       	inc	r14
      e0:	65 01       	movw	r12, r10
      e2:	8d e2       	ldi	r24, 0x2D	; 45
      e4:	c8 0e       	add	r12, r24
      e6:	d1 1c       	adc	r13, r1
      e8:	c6 01       	movw	r24, r12
      ea:	60 d5       	rcall	.+2752   	; 0xbac <_ZN5Drive14GetSpeedFactorEv>
      ec:	e5 01       	movw	r28, r10
      ee:	64 96       	adiw	r28, 0x14	; 20
      f0:	08 2f       	mov	r16, r24
      f2:	11 27       	eor	r17, r17
      f4:	07 fd       	sbrc	r16, 7
      f6:	10 95       	com	r17
      f8:	24 e0       	ldi	r18, 0x04	; 4
      fa:	40 e0       	ldi	r20, 0x00	; 0
      fc:	60 e0       	ldi	r22, 0x00	; 0
      fe:	ce 01       	movw	r24, r28
     100:	fc d3       	rcall	.+2040   	; 0x8fa <_ZN7Display14PutPointNumberEhhhih>
     102:	11 e0       	ldi	r17, 0x01	; 1
     104:	f1 10       	cpse	r15, r1
     106:	10 e0       	ldi	r17, 0x00	; 0
     108:	01 2f       	mov	r16, r17
     10a:	23 e1       	ldi	r18, 0x13	; 19
     10c:	40 e0       	ldi	r20, 0x00	; 0
     10e:	64 e0       	ldi	r22, 0x04	; 4
     110:	ce 01       	movw	r24, r28
     112:	17 d3       	rcall	.+1582   	; 0x742 <_ZN7Display7PutCharEhhhh>
     114:	22 e1       	ldi	r18, 0x12	; 18
     116:	40 e0       	ldi	r20, 0x00	; 0
     118:	65 e0       	ldi	r22, 0x05	; 5
     11a:	ce 01       	movw	r24, r28
     11c:	12 d3       	rcall	.+1572   	; 0x742 <_ZN7Display7PutCharEhhhh>
     11e:	11 11       	cpse	r17, r1
     120:	06 c0       	rjmp	.+12     	; 0x12e <_ZN11Application13DrawDriveLineEh+0x7a>
     122:	81 e0       	ldi	r24, 0x01	; 1
     124:	93 e0       	ldi	r25, 0x03	; 3
     126:	f9 12       	cpse	r15, r25
     128:	80 e0       	ldi	r24, 0x00	; 0
     12a:	e8 2e       	mov	r14, r24
     12c:	02 c0       	rjmp	.+4      	; 0x132 <_ZN11Application13DrawDriveLineEh+0x7e>
     12e:	ee 24       	eor	r14, r14
     130:	e3 94       	inc	r14
     132:	c6 01       	movw	r24, r12
     134:	27 d5       	rcall	.+2638   	; 0xb84 <_ZN5Drive8GetSpeedEv>
     136:	97 fd       	sbrc	r25, 7
     138:	03 c0       	rjmp	.+6      	; 0x140 <_ZN11Application13DrawDriveLineEh+0x8c>
     13a:	c6 01       	movw	r24, r12
     13c:	23 d5       	rcall	.+2630   	; 0xb84 <_ZN5Drive8GetSpeedEv>
     13e:	05 c0       	rjmp	.+10     	; 0x14a <_ZN11Application13DrawDriveLineEh+0x96>
     140:	c6 01       	movw	r24, r12
     142:	20 d5       	rcall	.+2624   	; 0xb84 <_ZN5Drive8GetSpeedEv>
     144:	91 95       	neg	r25
     146:	81 95       	neg	r24
     148:	91 09       	sbc	r25, r1
     14a:	8c 01       	movw	r16, r24
     14c:	24 e0       	ldi	r18, 0x04	; 4
     14e:	40 e0       	ldi	r20, 0x00	; 0
     150:	66 e0       	ldi	r22, 0x06	; 6
     152:	ce 01       	movw	r24, r28
     154:	6d d4       	rcall	.+2266   	; 0xa30 <_ZN7Display12PutHexNumberEhhhjh>
     156:	c5 01       	movw	r24, r10
     158:	83 96       	adiw	r24, 0x23	; 35
     15a:	04 d2       	rcall	.+1032   	; 0x564 <_ZN7Battery10getVoltageEv>
     15c:	08 2f       	mov	r16, r24
     15e:	10 e0       	ldi	r17, 0x00	; 0
     160:	e1 2c       	mov	r14, r1
     162:	23 e0       	ldi	r18, 0x03	; 3
     164:	40 e0       	ldi	r20, 0x00	; 0
     166:	6b e0       	ldi	r22, 0x0B	; 11
     168:	ce 01       	movw	r24, r28
     16a:	c7 d3       	rcall	.+1934   	; 0x8fa <_ZN7Display14PutPointNumberEhhhih>
     16c:	00 e0       	ldi	r16, 0x00	; 0
     16e:	24 e1       	ldi	r18, 0x14	; 20
     170:	40 e0       	ldi	r20, 0x00	; 0
     172:	6e e0       	ldi	r22, 0x0E	; 14
     174:	ce 01       	movw	r24, r28
     176:	e5 d2       	rcall	.+1482   	; 0x742 <_ZN7Display7PutCharEhhhh>
     178:	df 91       	pop	r29
     17a:	cf 91       	pop	r28
     17c:	1f 91       	pop	r17
     17e:	0f 91       	pop	r16
     180:	ff 90       	pop	r15
     182:	ef 90       	pop	r14
     184:	df 90       	pop	r13
     186:	cf 90       	pop	r12
     188:	bf 90       	pop	r11
     18a:	af 90       	pop	r10
     18c:	08 95       	ret

0000018e <_ZN11Application15DrawShutterLineEh>:
     18e:	bf 92       	push	r11
     190:	cf 92       	push	r12
     192:	df 92       	push	r13
     194:	ef 92       	push	r14
     196:	ff 92       	push	r15
     198:	0f 93       	push	r16
     19a:	1f 93       	push	r17
     19c:	cf 93       	push	r28
     19e:	df 93       	push	r29
     1a0:	6c 01       	movw	r12, r24
     1a2:	b6 2e       	mov	r11, r22
     1a4:	fc 01       	movw	r30, r24
     1a6:	84 a5       	ldd	r24, Z+44	; 0x2c
     1a8:	e6 01       	movw	r28, r12
     1aa:	64 96       	adiw	r28, 0x14	; 20
     1ac:	81 30       	cpi	r24, 0x01	; 1
     1ae:	41 f0       	breq	.+16     	; 0x1c0 <_ZN11Application15DrawShutterLineEh+0x32>
     1b0:	60 f0       	brcs	.+24     	; 0x1ca <_ZN11Application15DrawShutterLineEh+0x3c>
     1b2:	82 30       	cpi	r24, 0x02	; 2
     1b4:	91 f4       	brne	.+36     	; 0x1da <_ZN11Application15DrawShutterLineEh+0x4c>
     1b6:	01 e0       	ldi	r16, 0x01	; 1
     1b8:	60 13       	cpse	r22, r16
     1ba:	00 e0       	ldi	r16, 0x00	; 0
     1bc:	2a e1       	ldi	r18, 0x1A	; 26
     1be:	09 c0       	rjmp	.+18     	; 0x1d2 <_ZN11Application15DrawShutterLineEh+0x44>
     1c0:	01 e0       	ldi	r16, 0x01	; 1
     1c2:	60 13       	cpse	r22, r16
     1c4:	00 e0       	ldi	r16, 0x00	; 0
     1c6:	28 e1       	ldi	r18, 0x18	; 24
     1c8:	04 c0       	rjmp	.+8      	; 0x1d2 <_ZN11Application15DrawShutterLineEh+0x44>
     1ca:	01 e0       	ldi	r16, 0x01	; 1
     1cc:	60 13       	cpse	r22, r16
     1ce:	00 e0       	ldi	r16, 0x00	; 0
     1d0:	29 e1       	ldi	r18, 0x19	; 25
     1d2:	41 e0       	ldi	r20, 0x01	; 1
     1d4:	60 e0       	ldi	r22, 0x00	; 0
     1d6:	ce 01       	movw	r24, r28
     1d8:	b4 d2       	rcall	.+1384   	; 0x742 <_ZN7Display7PutCharEhhhh>
     1da:	ff 24       	eor	r15, r15
     1dc:	f3 94       	inc	r15
     1de:	bf 10       	cpse	r11, r15
     1e0:	f1 2c       	mov	r15, r1
     1e2:	0f 2d       	mov	r16, r15
     1e4:	20 e1       	ldi	r18, 0x10	; 16
     1e6:	41 e0       	ldi	r20, 0x01	; 1
     1e8:	61 e0       	ldi	r22, 0x01	; 1
     1ea:	ce 01       	movw	r24, r28
     1ec:	aa d2       	rcall	.+1364   	; 0x742 <_ZN7Display7PutCharEhhhh>
     1ee:	f6 01       	movw	r30, r12
     1f0:	82 a5       	ldd	r24, Z+42	; 0x2a
     1f2:	08 2f       	mov	r16, r24
     1f4:	10 e0       	ldi	r17, 0x00	; 0
     1f6:	ef 2c       	mov	r14, r15
     1f8:	22 e0       	ldi	r18, 0x02	; 2
     1fa:	41 e0       	ldi	r20, 0x01	; 1
     1fc:	62 e0       	ldi	r22, 0x02	; 2
     1fe:	ce 01       	movw	r24, r28
     200:	23 d3       	rcall	.+1606   	; 0x848 <_ZN7Display9PutNumberEhhhih>
     202:	0f 2d       	mov	r16, r15
     204:	26 e1       	ldi	r18, 0x16	; 22
     206:	41 e0       	ldi	r20, 0x01	; 1
     208:	64 e0       	ldi	r22, 0x04	; 4
     20a:	ce 01       	movw	r24, r28
     20c:	9a d2       	rcall	.+1332   	; 0x742 <_ZN7Display7PutCharEhhhh>
     20e:	f1 10       	cpse	r15, r1
     210:	06 c0       	rjmp	.+12     	; 0x21e <_ZN11Application15DrawShutterLineEh+0x90>
     212:	81 e0       	ldi	r24, 0x01	; 1
     214:	f4 e0       	ldi	r31, 0x04	; 4
     216:	bf 12       	cpse	r11, r31
     218:	80 e0       	ldi	r24, 0x00	; 0
     21a:	e8 2e       	mov	r14, r24
     21c:	02 c0       	rjmp	.+4      	; 0x222 <_ZN11Application15DrawShutterLineEh+0x94>
     21e:	ee 24       	eor	r14, r14
     220:	e3 94       	inc	r14
     222:	f6 01       	movw	r30, r12
     224:	83 a5       	ldd	r24, Z+43	; 0x2b
     226:	08 2f       	mov	r16, r24
     228:	10 e0       	ldi	r17, 0x00	; 0
     22a:	22 e0       	ldi	r18, 0x02	; 2
     22c:	41 e0       	ldi	r20, 0x01	; 1
     22e:	65 e0       	ldi	r22, 0x05	; 5
     230:	ce 01       	movw	r24, r28
     232:	0a d3       	rcall	.+1556   	; 0x848 <_ZN7Display9PutNumberEhhhih>
     234:	0f 2d       	mov	r16, r15
     236:	23 e1       	ldi	r18, 0x13	; 19
     238:	41 e0       	ldi	r20, 0x01	; 1
     23a:	67 e0       	ldi	r22, 0x07	; 7
     23c:	ce 01       	movw	r24, r28
     23e:	81 d2       	rcall	.+1282   	; 0x742 <_ZN7Display7PutCharEhhhh>
     240:	f1 10       	cpse	r15, r1
     242:	06 c0       	rjmp	.+12     	; 0x250 <_ZN11Application15DrawShutterLineEh+0xc2>
     244:	81 e0       	ldi	r24, 0x01	; 1
     246:	f5 e0       	ldi	r31, 0x05	; 5
     248:	bf 12       	cpse	r11, r31
     24a:	80 e0       	ldi	r24, 0x00	; 0
     24c:	e8 2e       	mov	r14, r24
     24e:	02 c0       	rjmp	.+4      	; 0x254 <_ZN11Application15DrawShutterLineEh+0xc6>
     250:	ee 24       	eor	r14, r14
     252:	e3 94       	inc	r14
     254:	f6 01       	movw	r30, r12
     256:	81 a5       	ldd	r24, Z+41	; 0x29
     258:	90 a5       	ldd	r25, Z+40	; 0x28
     25a:	89 1b       	sub	r24, r25
     25c:	08 2f       	mov	r16, r24
     25e:	10 e0       	ldi	r17, 0x00	; 0
     260:	22 e0       	ldi	r18, 0x02	; 2
     262:	41 e0       	ldi	r20, 0x01	; 1
     264:	68 e0       	ldi	r22, 0x08	; 8
     266:	ce 01       	movw	r24, r28
     268:	ef d2       	rcall	.+1502   	; 0x848 <_ZN7Display9PutNumberEhhhih>
     26a:	0f 2d       	mov	r16, r15
     26c:	25 e1       	ldi	r18, 0x15	; 21
     26e:	41 e0       	ldi	r20, 0x01	; 1
     270:	6a e0       	ldi	r22, 0x0A	; 10
     272:	ce 01       	movw	r24, r28
     274:	66 d2       	rcall	.+1228   	; 0x742 <_ZN7Display7PutCharEhhhh>
     276:	27 e1       	ldi	r18, 0x17	; 23
     278:	41 e0       	ldi	r20, 0x01	; 1
     27a:	6b e0       	ldi	r22, 0x0B	; 11
     27c:	ce 01       	movw	r24, r28
     27e:	61 d2       	rcall	.+1218   	; 0x742 <_ZN7Display7PutCharEhhhh>
     280:	f1 10       	cpse	r15, r1
     282:	06 c0       	rjmp	.+12     	; 0x290 <_ZN11Application15DrawShutterLineEh+0x102>
     284:	81 e0       	ldi	r24, 0x01	; 1
     286:	f6 e0       	ldi	r31, 0x06	; 6
     288:	bf 12       	cpse	r11, r31
     28a:	80 e0       	ldi	r24, 0x00	; 0
     28c:	e8 2e       	mov	r14, r24
     28e:	02 c0       	rjmp	.+4      	; 0x294 <_ZN11Application15DrawShutterLineEh+0x106>
     290:	ee 24       	eor	r14, r14
     292:	e3 94       	inc	r14
     294:	f6 01       	movw	r30, r12
     296:	80 a5       	ldd	r24, Z+40	; 0x28
     298:	08 2f       	mov	r16, r24
     29a:	10 e0       	ldi	r17, 0x00	; 0
     29c:	22 e0       	ldi	r18, 0x02	; 2
     29e:	41 e0       	ldi	r20, 0x01	; 1
     2a0:	6c e0       	ldi	r22, 0x0C	; 12
     2a2:	ce 01       	movw	r24, r28
     2a4:	d1 d2       	rcall	.+1442   	; 0x848 <_ZN7Display9PutNumberEhhhih>
     2a6:	0f 2d       	mov	r16, r15
     2a8:	25 e1       	ldi	r18, 0x15	; 21
     2aa:	41 e0       	ldi	r20, 0x01	; 1
     2ac:	6e e0       	ldi	r22, 0x0E	; 14
     2ae:	ce 01       	movw	r24, r28
     2b0:	48 d2       	rcall	.+1168   	; 0x742 <_ZN7Display7PutCharEhhhh>
     2b2:	df 91       	pop	r29
     2b4:	cf 91       	pop	r28
     2b6:	1f 91       	pop	r17
     2b8:	0f 91       	pop	r16
     2ba:	ff 90       	pop	r15
     2bc:	ef 90       	pop	r14
     2be:	df 90       	pop	r13
     2c0:	cf 90       	pop	r12
     2c2:	bf 90       	pop	r11
     2c4:	08 95       	ret

000002c6 <_ZN11Application12WaitForEventEv>:
     2c6:	ef 92       	push	r14
     2c8:	ff 92       	push	r15
     2ca:	0f 93       	push	r16
     2cc:	1f 93       	push	r17
     2ce:	cf 93       	push	r28
     2d0:	df 93       	push	r29
     2d2:	ec 01       	movw	r28, r24
     2d4:	20 d5       	rcall	.+2624   	; 0xd16 <_ZN8Interval12getMsCounterEv>
     2d6:	8c 01       	movw	r16, r24
     2d8:	7e 01       	movw	r14, r28
     2da:	2a e1       	ldi	r18, 0x1A	; 26
     2dc:	e2 0e       	add	r14, r18
     2de:	f1 1c       	adc	r15, r1
     2e0:	c7 01       	movw	r24, r14
     2e2:	72 d5       	rcall	.+2788   	; 0xdc8 <_ZN8Keyboard11UpdateEventEv>
     2e4:	8a a1       	ldd	r24, Y+34	; 0x22
     2e6:	80 7f       	andi	r24, 0xF0	; 240
     2e8:	39 f4       	brne	.+14     	; 0x2f8 <_ZN11Application12WaitForEventEv+0x32>
     2ea:	ce 01       	movw	r24, r28
     2ec:	14 d5       	rcall	.+2600   	; 0xd16 <_ZN8Interval12getMsCounterEv>
     2ee:	80 1b       	sub	r24, r16
     2f0:	91 0b       	sbc	r25, r17
     2f2:	8c 32       	cpi	r24, 0x2C	; 44
     2f4:	91 40       	sbci	r25, 0x01	; 1
     2f6:	a0 f3       	brcs	.-24     	; 0x2e0 <_ZN11Application12WaitForEventEv+0x1a>
     2f8:	df 91       	pop	r29
     2fa:	cf 91       	pop	r28
     2fc:	1f 91       	pop	r17
     2fe:	0f 91       	pop	r16
     300:	ff 90       	pop	r15
     302:	ef 90       	pop	r14
     304:	08 95       	ret

00000306 <_ZN11Application8MainMenuEv>:
     306:	ec 01       	movw	r28, r24
     308:	b1 2c       	mov	r11, r1
     30a:	6c 01       	movw	r12, r24
     30c:	84 e1       	ldi	r24, 0x14	; 20
     30e:	c8 0e       	add	r12, r24
     310:	d1 1c       	adc	r13, r1
     312:	7e 01       	movw	r14, r28
     314:	84 e2       	ldi	r24, 0x24	; 36
     316:	e8 0e       	add	r14, r24
     318:	f1 1c       	adc	r15, r1
     31a:	8e 01       	movw	r16, r28
     31c:	03 5d       	subi	r16, 0xD3	; 211
     31e:	1f 4f       	sbci	r17, 0xFF	; 255
     320:	6b 2d       	mov	r22, r11
     322:	ce 01       	movw	r24, r28
     324:	c7 de       	rcall	.-626    	; 0xb4 <_ZN11Application13DrawDriveLineEh>
     326:	6b 2d       	mov	r22, r11
     328:	ce 01       	movw	r24, r28
     32a:	31 df       	rcall	.-414    	; 0x18e <_ZN11Application15DrawShutterLineEh>
     32c:	ce 01       	movw	r24, r28
     32e:	cb df       	rcall	.-106    	; 0x2c6 <_ZN11Application12WaitForEventEv>
     330:	8a a1       	ldd	r24, Y+34	; 0x22
     332:	88 23       	and	r24, r24
     334:	11 f0       	breq	.+4      	; 0x33a <_ZN11Application8MainMenuEv+0x34>
     336:	c6 01       	movw	r24, r12
     338:	a6 d3       	rcall	.+1868   	; 0xa86 <_ZN7Display6WakeUpEv>
     33a:	aa a0       	ldd	r10, Y+34	; 0x22
     33c:	43 e0       	ldi	r20, 0x03	; 3
     33e:	60 e4       	ldi	r22, 0x40	; 64
     340:	8a 2d       	mov	r24, r10
     342:	94 de       	rcall	.-728    	; 0x6c <_ZN8Keyboard14CheckConditionEhh.isra.0>
     344:	88 23       	and	r24, r24
     346:	49 f0       	breq	.+18     	; 0x35a <_ZN11Application8MainMenuEv+0x54>
     348:	8b 2d       	mov	r24, r11
     34a:	90 e0       	ldi	r25, 0x00	; 0
     34c:	87 30       	cpi	r24, 0x07	; 7
     34e:	91 05       	cpc	r25, r1
     350:	38 f7       	brcc	.-50     	; 0x320 <_ZN11Application8MainMenuEv+0x1a>
     352:	fc 01       	movw	r30, r24
     354:	ed 5e       	subi	r30, 0xED	; 237
     356:	ff 4f       	sbci	r31, 0xFF	; 255
     358:	09 94       	ijmp
     35a:	b1 10       	cpse	r11, r1
     35c:	32 c0       	rjmp	.+100    	; 0x3c2 <_ZN11Application8MainMenuEv+0xbc>
     35e:	41 e0       	ldi	r20, 0x01	; 1
     360:	60 e1       	ldi	r22, 0x10	; 16
     362:	8a 2d       	mov	r24, r10
     364:	83 de       	rcall	.-762    	; 0x6c <_ZN8Keyboard14CheckConditionEhh.isra.0>
     366:	88 23       	and	r24, r24
     368:	19 f0       	breq	.+6      	; 0x370 <_ZN11Application8MainMenuEv+0x6a>
     36a:	63 e0       	ldi	r22, 0x03	; 3
     36c:	c8 01       	movw	r24, r16
     36e:	f2 d3       	rcall	.+2020   	; 0xb54 <_ZN5Drive7SetModeEh>
     370:	42 e0       	ldi	r20, 0x02	; 2
     372:	60 e1       	ldi	r22, 0x10	; 16
     374:	8a a1       	ldd	r24, Y+34	; 0x22
     376:	7a de       	rcall	.-780    	; 0x6c <_ZN8Keyboard14CheckConditionEhh.isra.0>
     378:	88 23       	and	r24, r24
     37a:	19 f0       	breq	.+6      	; 0x382 <_ZN11Application8MainMenuEv+0x7c>
     37c:	62 e0       	ldi	r22, 0x02	; 2
     37e:	c8 01       	movw	r24, r16
     380:	e9 d3       	rcall	.+2002   	; 0xb54 <_ZN5Drive7SetModeEh>
     382:	aa a0       	ldd	r10, Y+34	; 0x22
     384:	41 e0       	ldi	r20, 0x01	; 1
     386:	60 e2       	ldi	r22, 0x20	; 32
     388:	8a 2d       	mov	r24, r10
     38a:	70 de       	rcall	.-800    	; 0x6c <_ZN8Keyboard14CheckConditionEhh.isra.0>
     38c:	81 11       	cpse	r24, r1
     38e:	e0 c0       	rjmp	.+448    	; 0x550 <__stack+0xf1>
     390:	42 e0       	ldi	r20, 0x02	; 2
     392:	60 e2       	ldi	r22, 0x20	; 32
     394:	8a 2d       	mov	r24, r10
     396:	6a de       	rcall	.-812    	; 0x6c <_ZN8Keyboard14CheckConditionEhh.isra.0>
     398:	81 11       	cpse	r24, r1
     39a:	da c0       	rjmp	.+436    	; 0x550 <__stack+0xf1>
     39c:	43 e0       	ldi	r20, 0x03	; 3
     39e:	60 e8       	ldi	r22, 0x80	; 128
     3a0:	8a a1       	ldd	r24, Y+34	; 0x22
     3a2:	64 de       	rcall	.-824    	; 0x6c <_ZN8Keyboard14CheckConditionEhh.isra.0>
     3a4:	88 23       	and	r24, r24
     3a6:	09 f4       	brne	.+2      	; 0x3aa <_ZN11Application8MainMenuEv+0xa4>
     3a8:	bb cf       	rjmp	.-138    	; 0x320 <_ZN11Application8MainMenuEv+0x1a>
     3aa:	42 e0       	ldi	r20, 0x02	; 2
     3ac:	b4 2e       	mov	r11, r20
     3ae:	b8 cf       	rjmp	.-144    	; 0x320 <_ZN11Application8MainMenuEv+0x1a>
     3b0:	33 e0       	ldi	r19, 0x03	; 3
     3b2:	b3 2e       	mov	r11, r19
     3b4:	b5 cf       	rjmp	.-150    	; 0x320 <_ZN11Application8MainMenuEv+0x1a>
     3b6:	25 e0       	ldi	r18, 0x05	; 5
     3b8:	b2 2e       	mov	r11, r18
     3ba:	b2 cf       	rjmp	.-156    	; 0x320 <_ZN11Application8MainMenuEv+0x1a>
     3bc:	96 e0       	ldi	r25, 0x06	; 6
     3be:	b9 2e       	mov	r11, r25
     3c0:	af cf       	rjmp	.-162    	; 0x320 <_ZN11Application8MainMenuEv+0x1a>
     3c2:	81 e0       	ldi	r24, 0x01	; 1
     3c4:	b8 12       	cpse	r11, r24
     3c6:	2d c0       	rjmp	.+90     	; 0x422 <_ZN11Application8MainMenuEv+0x11c>
     3c8:	41 e0       	ldi	r20, 0x01	; 1
     3ca:	60 e4       	ldi	r22, 0x40	; 64
     3cc:	8a 2d       	mov	r24, r10
     3ce:	4e de       	rcall	.-868    	; 0x6c <_ZN8Keyboard14CheckConditionEhh.isra.0>
     3d0:	88 23       	and	r24, r24
     3d2:	51 f0       	breq	.+20     	; 0x3e8 <_ZN11Application8MainMenuEv+0xe2>
     3d4:	8c a5       	ldd	r24, Y+44	; 0x2c
     3d6:	81 30       	cpi	r24, 0x01	; 1
     3d8:	21 f0       	breq	.+8      	; 0x3e2 <_ZN11Application8MainMenuEv+0xdc>
     3da:	82 30       	cpi	r24, 0x02	; 2
     3dc:	29 f4       	brne	.+10     	; 0x3e8 <_ZN11Application8MainMenuEv+0xe2>
     3de:	61 e0       	ldi	r22, 0x01	; 1
     3e0:	01 c0       	rjmp	.+2      	; 0x3e4 <_ZN11Application8MainMenuEv+0xde>
     3e2:	60 e0       	ldi	r22, 0x00	; 0
     3e4:	c7 01       	movw	r24, r14
     3e6:	96 d5       	rcall	.+2860   	; 0xf14 <_ZN7Shutter9SetStatusEh>
     3e8:	42 e0       	ldi	r20, 0x02	; 2
     3ea:	60 e4       	ldi	r22, 0x40	; 64
     3ec:	8a a1       	ldd	r24, Y+34	; 0x22
     3ee:	3e de       	rcall	.-900    	; 0x6c <_ZN8Keyboard14CheckConditionEhh.isra.0>
     3f0:	88 23       	and	r24, r24
     3f2:	51 f0       	breq	.+20     	; 0x408 <_ZN11Application8MainMenuEv+0x102>
     3f4:	8c a5       	ldd	r24, Y+44	; 0x2c
     3f6:	88 23       	and	r24, r24
     3f8:	21 f0       	breq	.+8      	; 0x402 <_ZN11Application8MainMenuEv+0xfc>
     3fa:	81 30       	cpi	r24, 0x01	; 1
     3fc:	29 f4       	brne	.+10     	; 0x408 <_ZN11Application8MainMenuEv+0x102>
     3fe:	62 e0       	ldi	r22, 0x02	; 2
     400:	01 c0       	rjmp	.+2      	; 0x404 <_ZN11Application8MainMenuEv+0xfe>
     402:	61 e0       	ldi	r22, 0x01	; 1
     404:	c7 01       	movw	r24, r14
     406:	86 d5       	rcall	.+2828   	; 0xf14 <_ZN7Shutter9SetStatusEh>
     408:	43 e0       	ldi	r20, 0x03	; 3
     40a:	60 e8       	ldi	r22, 0x80	; 128
     40c:	8a a1       	ldd	r24, Y+34	; 0x22
     40e:	2e de       	rcall	.-932    	; 0x6c <_ZN8Keyboard14CheckConditionEhh.isra.0>
     410:	88 23       	and	r24, r24
     412:	09 f4       	brne	.+2      	; 0x416 <_ZN11Application8MainMenuEv+0x110>
     414:	85 cf       	rjmp	.-246    	; 0x320 <_ZN11Application8MainMenuEv+0x1a>
     416:	60 e0       	ldi	r22, 0x00	; 0
     418:	c7 01       	movw	r24, r14
     41a:	7c d5       	rcall	.+2808   	; 0xf14 <_ZN7Shutter9SetStatusEh>
     41c:	84 e0       	ldi	r24, 0x04	; 4
     41e:	b8 2e       	mov	r11, r24
     420:	7f cf       	rjmp	.-258    	; 0x320 <_ZN11Application8MainMenuEv+0x1a>
     422:	82 e0       	ldi	r24, 0x02	; 2
     424:	b8 12       	cpse	r11, r24
     426:	21 c0       	rjmp	.+66     	; 0x46a <__stack+0xb>
     428:	41 e0       	ldi	r20, 0x01	; 1
     42a:	60 e4       	ldi	r22, 0x40	; 64
     42c:	8a 2d       	mov	r24, r10
     42e:	1e de       	rcall	.-964    	; 0x6c <_ZN8Keyboard14CheckConditionEhh.isra.0>
     430:	88 23       	and	r24, r24
     432:	31 f0       	breq	.+12     	; 0x440 <_ZN11Application8MainMenuEv+0x13a>
     434:	c8 01       	movw	r24, r16
     436:	ba d3       	rcall	.+1908   	; 0xbac <_ZN5Drive14GetSpeedFactorEv>
     438:	6f ef       	ldi	r22, 0xFF	; 255
     43a:	68 0f       	add	r22, r24
     43c:	c8 01       	movw	r24, r16
     43e:	5f d3       	rcall	.+1726   	; 0xafe <_ZN5Drive14SetSpeedFactorEa>
     440:	42 e0       	ldi	r20, 0x02	; 2
     442:	60 e4       	ldi	r22, 0x40	; 64
     444:	8a a1       	ldd	r24, Y+34	; 0x22
     446:	12 de       	rcall	.-988    	; 0x6c <_ZN8Keyboard14CheckConditionEhh.isra.0>
     448:	88 23       	and	r24, r24
     44a:	31 f0       	breq	.+12     	; 0x458 <_ZN11Application8MainMenuEv+0x152>
     44c:	c8 01       	movw	r24, r16
     44e:	ae d3       	rcall	.+1884   	; 0xbac <_ZN5Drive14GetSpeedFactorEv>
     450:	61 e0       	ldi	r22, 0x01	; 1
     452:	68 0f       	add	r22, r24
     454:	c8 01       	movw	r24, r16
     456:	53 d3       	rcall	.+1702   	; 0xafe <_ZN5Drive14SetSpeedFactorEa>
     458:	43 e0       	ldi	r20, 0x03	; 3
     45a:	60 e8       	ldi	r22, 0x80	; 128
     45c:	8a a1       	ldd	r24, Y+34	; 0x22
     45e:	06 de       	rcall	.-1012   	; 0x6c <_ZN8Keyboard14CheckConditionEhh.isra.0>
     460:	88 23       	and	r24, r24
     462:	09 f4       	brne	.+2      	; 0x466 <__stack+0x7>
     464:	5d cf       	rjmp	.-326    	; 0x320 <_ZN11Application8MainMenuEv+0x1a>
     466:	b1 2c       	mov	r11, r1
     468:	5b cf       	rjmp	.-330    	; 0x320 <_ZN11Application8MainMenuEv+0x1a>
     46a:	83 e0       	ldi	r24, 0x03	; 3
     46c:	b8 12       	cpse	r11, r24
     46e:	1b c0       	rjmp	.+54     	; 0x4a6 <__stack+0x47>
     470:	41 e0       	ldi	r20, 0x01	; 1
     472:	60 e4       	ldi	r22, 0x40	; 64
     474:	8a 2d       	mov	r24, r10
     476:	fa dd       	rcall	.-1036   	; 0x6c <_ZN8Keyboard14CheckConditionEhh.isra.0>
     478:	88 23       	and	r24, r24
     47a:	39 f0       	breq	.+14     	; 0x48a <__stack+0x2b>
     47c:	c8 01       	movw	r24, r16
     47e:	82 d3       	rcall	.+1796   	; 0xb84 <_ZN5Drive8GetSpeedEv>
     480:	bc 01       	movw	r22, r24
     482:	61 50       	subi	r22, 0x01	; 1
     484:	71 09       	sbc	r23, r1
     486:	c8 01       	movw	r24, r16
     488:	21 d3       	rcall	.+1602   	; 0xacc <_ZN5Drive8SetSpeedEi>
     48a:	42 e0       	ldi	r20, 0x02	; 2
     48c:	60 e4       	ldi	r22, 0x40	; 64
     48e:	8a a1       	ldd	r24, Y+34	; 0x22
     490:	ed dd       	rcall	.-1062   	; 0x6c <_ZN8Keyboard14CheckConditionEhh.isra.0>
     492:	88 23       	and	r24, r24
     494:	09 f3       	breq	.-62     	; 0x458 <_ZN11Application8MainMenuEv+0x152>
     496:	c8 01       	movw	r24, r16
     498:	75 d3       	rcall	.+1770   	; 0xb84 <_ZN5Drive8GetSpeedEv>
     49a:	bc 01       	movw	r22, r24
     49c:	6f 5f       	subi	r22, 0xFF	; 255
     49e:	7f 4f       	sbci	r23, 0xFF	; 255
     4a0:	c8 01       	movw	r24, r16
     4a2:	14 d3       	rcall	.+1576   	; 0xacc <_ZN5Drive8SetSpeedEi>
     4a4:	d9 cf       	rjmp	.-78     	; 0x458 <_ZN11Application8MainMenuEv+0x152>
     4a6:	84 e0       	ldi	r24, 0x04	; 4
     4a8:	b8 12       	cpse	r11, r24
     4aa:	1e c0       	rjmp	.+60     	; 0x4e8 <__stack+0x89>
     4ac:	41 e0       	ldi	r20, 0x01	; 1
     4ae:	60 e4       	ldi	r22, 0x40	; 64
     4b0:	8a 2d       	mov	r24, r10
     4b2:	dc dd       	rcall	.-1096   	; 0x6c <_ZN8Keyboard14CheckConditionEhh.isra.0>
     4b4:	88 23       	and	r24, r24
     4b6:	21 f0       	breq	.+8      	; 0x4c0 <__stack+0x61>
     4b8:	6b a5       	ldd	r22, Y+43	; 0x2b
     4ba:	61 50       	subi	r22, 0x01	; 1
     4bc:	c7 01       	movw	r24, r14
     4be:	1d d5       	rcall	.+2618   	; 0xefa <_ZN7Shutter14SetFramesCountEh>
     4c0:	42 e0       	ldi	r20, 0x02	; 2
     4c2:	60 e4       	ldi	r22, 0x40	; 64
     4c4:	8a a1       	ldd	r24, Y+34	; 0x22
     4c6:	d2 dd       	rcall	.-1116   	; 0x6c <_ZN8Keyboard14CheckConditionEhh.isra.0>
     4c8:	88 23       	and	r24, r24
     4ca:	21 f0       	breq	.+8      	; 0x4d4 <__stack+0x75>
     4cc:	6b a5       	ldd	r22, Y+43	; 0x2b
     4ce:	6f 5f       	subi	r22, 0xFF	; 255
     4d0:	c7 01       	movw	r24, r14
     4d2:	13 d5       	rcall	.+2598   	; 0xefa <_ZN7Shutter14SetFramesCountEh>
     4d4:	43 e0       	ldi	r20, 0x03	; 3
     4d6:	60 e8       	ldi	r22, 0x80	; 128
     4d8:	8a a1       	ldd	r24, Y+34	; 0x22
     4da:	c8 dd       	rcall	.-1136   	; 0x6c <_ZN8Keyboard14CheckConditionEhh.isra.0>
     4dc:	88 23       	and	r24, r24
     4de:	09 f4       	brne	.+2      	; 0x4e2 <__stack+0x83>
     4e0:	1f cf       	rjmp	.-450    	; 0x320 <_ZN11Application8MainMenuEv+0x1a>
     4e2:	bb 24       	eor	r11, r11
     4e4:	b3 94       	inc	r11
     4e6:	1c cf       	rjmp	.-456    	; 0x320 <_ZN11Application8MainMenuEv+0x1a>
     4e8:	85 e0       	ldi	r24, 0x05	; 5
     4ea:	b8 12       	cpse	r11, r24
     4ec:	19 c0       	rjmp	.+50     	; 0x520 <__stack+0xc1>
     4ee:	41 e0       	ldi	r20, 0x01	; 1
     4f0:	60 e4       	ldi	r22, 0x40	; 64
     4f2:	8a 2d       	mov	r24, r10
     4f4:	bb dd       	rcall	.-1162   	; 0x6c <_ZN8Keyboard14CheckConditionEhh.isra.0>
     4f6:	88 23       	and	r24, r24
     4f8:	31 f0       	breq	.+12     	; 0x506 <__stack+0xa7>
     4fa:	69 a5       	ldd	r22, Y+41	; 0x29
     4fc:	61 50       	subi	r22, 0x01	; 1
     4fe:	88 a5       	ldd	r24, Y+40	; 0x28
     500:	68 1b       	sub	r22, r24
     502:	c7 01       	movw	r24, r14
     504:	d7 d4       	rcall	.+2478   	; 0xeb4 <_ZN7Shutter14SetShutterTimeEh>
     506:	42 e0       	ldi	r20, 0x02	; 2
     508:	60 e4       	ldi	r22, 0x40	; 64
     50a:	8a a1       	ldd	r24, Y+34	; 0x22
     50c:	af dd       	rcall	.-1186   	; 0x6c <_ZN8Keyboard14CheckConditionEhh.isra.0>
     50e:	88 23       	and	r24, r24
     510:	09 f3       	breq	.-62     	; 0x4d4 <__stack+0x75>
     512:	69 a5       	ldd	r22, Y+41	; 0x29
     514:	6f 5f       	subi	r22, 0xFF	; 255
     516:	88 a5       	ldd	r24, Y+40	; 0x28
     518:	68 1b       	sub	r22, r24
     51a:	c7 01       	movw	r24, r14
     51c:	cb d4       	rcall	.+2454   	; 0xeb4 <_ZN7Shutter14SetShutterTimeEh>
     51e:	da cf       	rjmp	.-76     	; 0x4d4 <__stack+0x75>
     520:	86 e0       	ldi	r24, 0x06	; 6
     522:	b8 12       	cpse	r11, r24
     524:	fd ce       	rjmp	.-518    	; 0x320 <_ZN11Application8MainMenuEv+0x1a>
     526:	41 e0       	ldi	r20, 0x01	; 1
     528:	60 e4       	ldi	r22, 0x40	; 64
     52a:	8a 2d       	mov	r24, r10
     52c:	9f dd       	rcall	.-1218   	; 0x6c <_ZN8Keyboard14CheckConditionEhh.isra.0>
     52e:	88 23       	and	r24, r24
     530:	21 f0       	breq	.+8      	; 0x53a <__stack+0xdb>
     532:	68 a5       	ldd	r22, Y+40	; 0x28
     534:	61 50       	subi	r22, 0x01	; 1
     536:	c7 01       	movw	r24, r14
     538:	cc d4       	rcall	.+2456   	; 0xed2 <_ZN7Shutter12SetPauseTimeEh>
     53a:	42 e0       	ldi	r20, 0x02	; 2
     53c:	60 e4       	ldi	r22, 0x40	; 64
     53e:	8a a1       	ldd	r24, Y+34	; 0x22
     540:	95 dd       	rcall	.-1238   	; 0x6c <_ZN8Keyboard14CheckConditionEhh.isra.0>
     542:	88 23       	and	r24, r24
     544:	39 f2       	breq	.-114    	; 0x4d4 <__stack+0x75>
     546:	68 a5       	ldd	r22, Y+40	; 0x28
     548:	6f 5f       	subi	r22, 0xFF	; 255
     54a:	c7 01       	movw	r24, r14
     54c:	c2 d4       	rcall	.+2436   	; 0xed2 <_ZN7Shutter12SetPauseTimeEh>
     54e:	c2 cf       	rjmp	.-124    	; 0x4d4 <__stack+0x75>
     550:	61 e0       	ldi	r22, 0x01	; 1
     552:	c8 01       	movw	r24, r16
     554:	ff d2       	rcall	.+1534   	; 0xb54 <_ZN5Drive7SetModeEh>
     556:	22 cf       	rjmp	.-444    	; 0x39c <_ZN11Application8MainMenuEv+0x96>

00000558 <_ZN11Application3RunEv>:
     558:	d6 de       	rcall	.-596    	; 0x306 <_ZN11Application8MainMenuEv>

0000055a <_ZN7BatteryC1Ev>:
     55a:	84 ec       	ldi	r24, 0xC4	; 196
     55c:	87 b9       	out	0x07, r24	; 7
     55e:	87 ea       	ldi	r24, 0xA7	; 167
     560:	86 b9       	out	0x06, r24	; 6
     562:	08 95       	ret

00000564 <_ZN7Battery10getVoltageEv>:
     564:	25 b1       	in	r18, 0x05	; 5
     566:	84 b1       	in	r24, 0x04	; 4
     568:	90 e0       	ldi	r25, 0x00	; 0
     56a:	92 2b       	or	r25, r18
     56c:	aa 27       	eor	r26, r26
     56e:	97 fd       	sbrc	r25, 7
     570:	a0 95       	com	r26
     572:	ba 2f       	mov	r27, r26
     574:	23 e0       	ldi	r18, 0x03	; 3
     576:	b6 95       	lsr	r27
     578:	a7 95       	ror	r26
     57a:	97 95       	ror	r25
     57c:	87 95       	ror	r24
     57e:	2a 95       	dec	r18
     580:	d1 f7       	brne	.-12     	; 0x576 <_ZN7Battery10getVoltageEv+0x12>
     582:	08 95       	ret

00000584 <_ZN7Display15IntervalHandlerEv>:
     584:	fc 01       	movw	r30, r24
     586:	85 b3       	in	r24, 0x15	; 21
     588:	91 e0       	ldi	r25, 0x01	; 1
     58a:	89 27       	eor	r24, r25
     58c:	85 bb       	out	0x15, r24	; 21
     58e:	82 81       	ldd	r24, Z+2	; 0x02
     590:	93 81       	ldd	r25, Z+3	; 0x03
     592:	89 2b       	or	r24, r25
     594:	39 f0       	breq	.+14     	; 0x5a4 <_ZN7Display15IntervalHandlerEv+0x20>
     596:	82 81       	ldd	r24, Z+2	; 0x02
     598:	93 81       	ldd	r25, Z+3	; 0x03
     59a:	01 97       	sbiw	r24, 0x01	; 1
     59c:	93 83       	std	Z+3, r25	; 0x03
     59e:	82 83       	std	Z+2, r24	; 0x02
     5a0:	94 9a       	sbi	0x12, 4	; 18
     5a2:	08 95       	ret
     5a4:	94 98       	cbi	0x12, 4	; 18
     5a6:	08 95       	ret

000005a8 <_ZN7Display11SendCommandEhh>:
     5a8:	a9 98       	cbi	0x15, 1	; 21
     5aa:	68 bb       	out	0x18, r22	; 24
     5ac:	85 b3       	in	r24, 0x15	; 21
     5ae:	43 70       	andi	r20, 0x03	; 3
     5b0:	94 e0       	ldi	r25, 0x04	; 4
     5b2:	49 9f       	mul	r20, r25
     5b4:	a0 01       	movw	r20, r0
     5b6:	11 24       	eor	r1, r1
     5b8:	84 2b       	or	r24, r20
     5ba:	85 bb       	out	0x15, r24	; 21
     5bc:	00 00       	nop
     5be:	00 00       	nop
     5c0:	00 00       	nop
     5c2:	85 b3       	in	r24, 0x15	; 21
     5c4:	83 7f       	andi	r24, 0xF3	; 243
     5c6:	85 bb       	out	0x15, r24	; 21
     5c8:	08 95       	ret

000005ca <_ZN7Display8SendDataEhh>:
     5ca:	a9 9a       	sbi	0x15, 1	; 21
     5cc:	68 bb       	out	0x18, r22	; 24
     5ce:	85 b3       	in	r24, 0x15	; 21
     5d0:	43 70       	andi	r20, 0x03	; 3
     5d2:	94 e0       	ldi	r25, 0x04	; 4
     5d4:	49 9f       	mul	r20, r25
     5d6:	a0 01       	movw	r20, r0
     5d8:	11 24       	eor	r1, r1
     5da:	84 2b       	or	r24, r20
     5dc:	85 bb       	out	0x15, r24	; 21
     5de:	00 00       	nop
     5e0:	00 00       	nop
     5e2:	00 00       	nop
     5e4:	85 b3       	in	r24, 0x15	; 21
     5e6:	83 7f       	andi	r24, 0xF3	; 243
     5e8:	85 bb       	out	0x15, r24	; 21
     5ea:	08 95       	ret

000005ec <_ZN7Display9PutColumnEhhhh>:
     5ec:	cf 92       	push	r12
     5ee:	df 92       	push	r13
     5f0:	ff 92       	push	r15
     5f2:	0f 93       	push	r16
     5f4:	1f 93       	push	r17
     5f6:	cf 93       	push	r28
     5f8:	df 93       	push	r29
     5fa:	00 d0       	rcall	.+0      	; 0x5fc <_ZN7Display9PutColumnEhhhh+0x10>
     5fc:	cd b7       	in	r28, 0x3d	; 61
     5fe:	de b7       	in	r29, 0x3e	; 62
     600:	6c 01       	movw	r12, r24
     602:	16 2f       	mov	r17, r22
     604:	f0 2e       	mov	r15, r16
     606:	6a 37       	cpi	r22, 0x7A	; 122
     608:	90 f5       	brcc	.+100    	; 0x66e <_ZN7Display9PutColumnEhhhh+0x82>
     60a:	44 30       	cpi	r20, 0x04	; 4
     60c:	80 f5       	brcc	.+96     	; 0x66e <_ZN7Display9PutColumnEhhhh+0x82>
     60e:	6d 33       	cpi	r22, 0x3D	; 61
     610:	20 f4       	brcc	.+8      	; 0x61a <_ZN7Display9PutColumnEhhhh+0x2e>
     612:	34 2f       	mov	r19, r20
     614:	30 61       	ori	r19, 0x10	; 16
     616:	01 e0       	ldi	r16, 0x01	; 1
     618:	04 c0       	rjmp	.+8      	; 0x622 <_ZN7Display9PutColumnEhhhh+0x36>
     61a:	1d 53       	subi	r17, 0x3D	; 61
     61c:	34 2f       	mov	r19, r20
     61e:	30 62       	ori	r19, 0x20	; 32
     620:	02 e0       	ldi	r16, 0x02	; 2
     622:	f6 01       	movw	r30, r12
     624:	84 81       	ldd	r24, Z+4	; 0x04
     626:	18 13       	cpse	r17, r24
     628:	03 c0       	rjmp	.+6      	; 0x630 <_ZN7Display9PutColumnEhhhh+0x44>
     62a:	85 81       	ldd	r24, Z+5	; 0x05
     62c:	38 17       	cp	r19, r24
     62e:	89 f0       	breq	.+34     	; 0x652 <_ZN7Display9PutColumnEhhhh+0x66>
     630:	63 2f       	mov	r22, r19
     632:	6f 70       	andi	r22, 0x0F	; 15
     634:	68 54       	subi	r22, 0x48	; 72
     636:	40 2f       	mov	r20, r16
     638:	c6 01       	movw	r24, r12
     63a:	2a 83       	std	Y+2, r18	; 0x02
     63c:	39 83       	std	Y+1, r19	; 0x01
     63e:	b4 df       	rcall	.-152    	; 0x5a8 <_ZN7Display11SendCommandEhh>
     640:	40 2f       	mov	r20, r16
     642:	61 2f       	mov	r22, r17
     644:	c6 01       	movw	r24, r12
     646:	b0 df       	rcall	.-160    	; 0x5a8 <_ZN7Display11SendCommandEhh>
     648:	f6 01       	movw	r30, r12
     64a:	14 83       	std	Z+4, r17	; 0x04
     64c:	39 81       	ldd	r19, Y+1	; 0x01
     64e:	35 83       	std	Z+5, r19	; 0x05
     650:	2a 81       	ldd	r18, Y+2	; 0x02
     652:	ff 20       	and	r15, r15
     654:	21 f0       	breq	.+8      	; 0x65e <_ZN7Display9PutColumnEhhhh+0x72>
     656:	62 2f       	mov	r22, r18
     658:	60 95       	com	r22
     65a:	40 2f       	mov	r20, r16
     65c:	02 c0       	rjmp	.+4      	; 0x662 <_ZN7Display9PutColumnEhhhh+0x76>
     65e:	40 2f       	mov	r20, r16
     660:	62 2f       	mov	r22, r18
     662:	c6 01       	movw	r24, r12
     664:	b2 df       	rcall	.-156    	; 0x5ca <_ZN7Display8SendDataEhh>
     666:	f6 01       	movw	r30, r12
     668:	84 81       	ldd	r24, Z+4	; 0x04
     66a:	8f 5f       	subi	r24, 0xFF	; 255
     66c:	84 83       	std	Z+4, r24	; 0x04
     66e:	0f 90       	pop	r0
     670:	0f 90       	pop	r0
     672:	df 91       	pop	r29
     674:	cf 91       	pop	r28
     676:	1f 91       	pop	r17
     678:	0f 91       	pop	r16
     67a:	ff 90       	pop	r15
     67c:	df 90       	pop	r13
     67e:	cf 90       	pop	r12
     680:	08 95       	ret

00000682 <_ZN7Display11ClearScreenEv>:
     682:	0f 93       	push	r16
     684:	1f 93       	push	r17
     686:	cf 93       	push	r28
     688:	df 93       	push	r29
     68a:	ec 01       	movw	r28, r24
     68c:	18 eb       	ldi	r17, 0xB8	; 184
     68e:	43 e0       	ldi	r20, 0x03	; 3
     690:	61 2f       	mov	r22, r17
     692:	ce 01       	movw	r24, r28
     694:	89 df       	rcall	.-238    	; 0x5a8 <_ZN7Display11SendCommandEhh>
     696:	43 e0       	ldi	r20, 0x03	; 3
     698:	60 e0       	ldi	r22, 0x00	; 0
     69a:	ce 01       	movw	r24, r28
     69c:	85 df       	rcall	.-246    	; 0x5a8 <_ZN7Display11SendCommandEhh>
     69e:	0d e3       	ldi	r16, 0x3D	; 61
     6a0:	43 e0       	ldi	r20, 0x03	; 3
     6a2:	60 e0       	ldi	r22, 0x00	; 0
     6a4:	ce 01       	movw	r24, r28
     6a6:	91 df       	rcall	.-222    	; 0x5ca <_ZN7Display8SendDataEhh>
     6a8:	01 50       	subi	r16, 0x01	; 1
     6aa:	d1 f7       	brne	.-12     	; 0x6a0 <_ZN7Display11ClearScreenEv+0x1e>
     6ac:	1f 5f       	subi	r17, 0xFF	; 255
     6ae:	1c 3b       	cpi	r17, 0xBC	; 188
     6b0:	71 f7       	brne	.-36     	; 0x68e <_ZN7Display11ClearScreenEv+0xc>
     6b2:	1c 82       	std	Y+4, r1	; 0x04
     6b4:	1d 82       	std	Y+5, r1	; 0x05
     6b6:	43 e0       	ldi	r20, 0x03	; 3
     6b8:	68 eb       	ldi	r22, 0xB8	; 184
     6ba:	ce 01       	movw	r24, r28
     6bc:	75 df       	rcall	.-278    	; 0x5a8 <_ZN7Display11SendCommandEhh>
     6be:	43 e0       	ldi	r20, 0x03	; 3
     6c0:	60 e0       	ldi	r22, 0x00	; 0
     6c2:	ce 01       	movw	r24, r28
     6c4:	df 91       	pop	r29
     6c6:	cf 91       	pop	r28
     6c8:	1f 91       	pop	r17
     6ca:	0f 91       	pop	r16
     6cc:	6d cf       	rjmp	.-294    	; 0x5a8 <_ZN7Display11SendCommandEhh>

000006ce <_ZN7Display12InitHardwareEv>:
     6ce:	cf 93       	push	r28
     6d0:	df 93       	push	r29
     6d2:	ec 01       	movw	r28, r24
     6d4:	8f ef       	ldi	r24, 0xFF	; 255
     6d6:	87 bb       	out	0x17, r24	; 23
     6d8:	88 bb       	out	0x18, r24	; 24
     6da:	84 b3       	in	r24, 0x14	; 20
     6dc:	8f 60       	ori	r24, 0x0F	; 15
     6de:	84 bb       	out	0x14, r24	; 20
     6e0:	85 b3       	in	r24, 0x15	; 21
     6e2:	80 7f       	andi	r24, 0xF0	; 240
     6e4:	85 bb       	out	0x15, r24	; 21
     6e6:	8c 9a       	sbi	0x11, 4	; 17
     6e8:	94 9a       	sbi	0x12, 4	; 18
     6ea:	2f e7       	ldi	r18, 0x7F	; 127
     6ec:	88 e3       	ldi	r24, 0x38	; 56
     6ee:	91 e0       	ldi	r25, 0x01	; 1
     6f0:	21 50       	subi	r18, 0x01	; 1
     6f2:	80 40       	sbci	r24, 0x00	; 0
     6f4:	90 40       	sbci	r25, 0x00	; 0
     6f6:	e1 f7       	brne	.-8      	; 0x6f0 <_ZN7Display12InitHardwareEv+0x22>
     6f8:	00 c0       	rjmp	.+0      	; 0x6fa <_ZN7Display12InitHardwareEv+0x2c>
     6fa:	00 00       	nop
     6fc:	43 e0       	ldi	r20, 0x03	; 3
     6fe:	6f ea       	ldi	r22, 0xAF	; 175
     700:	ce 01       	movw	r24, r28
     702:	52 df       	rcall	.-348    	; 0x5a8 <_ZN7Display11SendCommandEhh>
     704:	43 e0       	ldi	r20, 0x03	; 3
     706:	60 ea       	ldi	r22, 0xA0	; 160
     708:	ce 01       	movw	r24, r28
     70a:	4e df       	rcall	.-356    	; 0x5a8 <_ZN7Display11SendCommandEhh>
     70c:	ce 01       	movw	r24, r28
     70e:	b9 df       	rcall	.-142    	; 0x682 <_ZN7Display11ClearScreenEv>
     710:	80 e4       	ldi	r24, 0x40	; 64
     712:	9f e1       	ldi	r25, 0x1F	; 31
     714:	9b 83       	std	Y+3, r25	; 0x03
     716:	8a 83       	std	Y+2, r24	; 0x02
     718:	df 91       	pop	r29
     71a:	cf 91       	pop	r28
     71c:	08 95       	ret

0000071e <_ZN7DisplayC1EP8Interval>:
     71e:	cf 93       	push	r28
     720:	df 93       	push	r29
     722:	ec 01       	movw	r28, r24
     724:	cb 01       	movw	r24, r22
     726:	24 e6       	ldi	r18, 0x64	; 100
     728:	30 e0       	ldi	r19, 0x00	; 0
     72a:	39 83       	std	Y+1, r19	; 0x01
     72c:	28 83       	st	Y, r18
     72e:	1b 82       	std	Y+3, r1	; 0x03
     730:	1a 82       	std	Y+2, r1	; 0x02
     732:	40 ea       	ldi	r20, 0xA0	; 160
     734:	5f e0       	ldi	r21, 0x0F	; 15
     736:	be 01       	movw	r22, r28
     738:	c3 d2       	rcall	.+1414   	; 0xcc0 <_ZN8Interval11addListenerEP16IntervalListenerj>
     73a:	ce 01       	movw	r24, r28
     73c:	df 91       	pop	r29
     73e:	cf 91       	pop	r28
     740:	c6 cf       	rjmp	.-116    	; 0x6ce <_ZN7Display12InitHardwareEv>

00000742 <_ZN7Display7PutCharEhhhh>:
     742:	5f 92       	push	r5
     744:	6f 92       	push	r6
     746:	7f 92       	push	r7
     748:	8f 92       	push	r8
     74a:	9f 92       	push	r9
     74c:	af 92       	push	r10
     74e:	bf 92       	push	r11
     750:	cf 92       	push	r12
     752:	df 92       	push	r13
     754:	ef 92       	push	r14
     756:	ff 92       	push	r15
     758:	0f 93       	push	r16
     75a:	1f 93       	push	r17
     75c:	cf 93       	push	r28
     75e:	df 93       	push	r29
     760:	ec 01       	movw	r28, r24
     762:	66 2e       	mov	r6, r22
     764:	84 2e       	mov	r8, r20
     766:	a2 2e       	mov	r10, r18
     768:	10 2f       	mov	r17, r16
     76a:	76 2e       	mov	r7, r22
     76c:	77 0c       	add	r7, r7
     76e:	77 0c       	add	r7, r7
     770:	77 0c       	add	r7, r7
     772:	92 e0       	ldi	r25, 0x02	; 2
     774:	99 2e       	mov	r9, r25
     776:	97 0c       	add	r9, r7
     778:	88 0c       	add	r8, r8
     77a:	61 11       	cpse	r22, r1
     77c:	06 c0       	rjmp	.+12     	; 0x78a <_ZN7Display7PutCharEhhhh+0x48>
     77e:	20 e0       	ldi	r18, 0x00	; 0
     780:	48 2d       	mov	r20, r8
     782:	61 e0       	ldi	r22, 0x01	; 1
     784:	67 0d       	add	r22, r7
     786:	ce 01       	movw	r24, r28
     788:	31 df       	rcall	.-414    	; 0x5ec <_ZN7Display9PutColumnEhhhh>
     78a:	8e e0       	ldi	r24, 0x0E	; 14
     78c:	a8 9e       	mul	r10, r24
     78e:	60 01       	movw	r12, r0
     790:	11 24       	eor	r1, r1
     792:	c6 01       	movw	r24, r12
     794:	8a 59       	subi	r24, 0x9A	; 154
     796:	9f 4f       	sbci	r25, 0xFF	; 255
     798:	6c 01       	movw	r12, r24
     79a:	e1 2c       	mov	r14, r1
     79c:	f1 2c       	mov	r15, r1
     79e:	b1 2c       	mov	r11, r1
     7a0:	f6 01       	movw	r30, r12
     7a2:	ee 0d       	add	r30, r14
     7a4:	ff 1d       	adc	r31, r15
     7a6:	69 2d       	mov	r22, r9
     7a8:	6e 0d       	add	r22, r14
     7aa:	01 2f       	mov	r16, r17
     7ac:	20 81       	ld	r18, Z
     7ae:	48 2d       	mov	r20, r8
     7b0:	ce 01       	movw	r24, r28
     7b2:	1c df       	rcall	.-456    	; 0x5ec <_ZN7Display9PutColumnEhhhh>
     7b4:	9f ef       	ldi	r25, 0xFF	; 255
     7b6:	e9 1a       	sub	r14, r25
     7b8:	f9 0a       	sbc	r15, r25
     7ba:	87 e0       	ldi	r24, 0x07	; 7
     7bc:	e8 16       	cp	r14, r24
     7be:	f1 04       	cpc	r15, r1
     7c0:	79 f7       	brne	.-34     	; 0x7a0 <_ZN7Display7PutCharEhhhh+0x5e>
     7c2:	89 e0       	ldi	r24, 0x09	; 9
     7c4:	58 2e       	mov	r5, r24
     7c6:	57 0c       	add	r5, r7
     7c8:	20 e0       	ldi	r18, 0x00	; 0
     7ca:	48 2d       	mov	r20, r8
     7cc:	65 2d       	mov	r22, r5
     7ce:	ce 01       	movw	r24, r28
     7d0:	0d df       	rcall	.-486    	; 0x5ec <_ZN7Display9PutColumnEhhhh>
     7d2:	83 94       	inc	r8
     7d4:	61 10       	cpse	r6, r1
     7d6:	06 c0       	rjmp	.+12     	; 0x7e4 <_ZN7Display7PutCharEhhhh+0xa2>
     7d8:	61 e0       	ldi	r22, 0x01	; 1
     7da:	67 0d       	add	r22, r7
     7dc:	20 e0       	ldi	r18, 0x00	; 0
     7de:	48 2d       	mov	r20, r8
     7e0:	ce 01       	movw	r24, r28
     7e2:	04 df       	rcall	.-504    	; 0x5ec <_ZN7Display9PutColumnEhhhh>
     7e4:	8e e0       	ldi	r24, 0x0E	; 14
     7e6:	8a 9d       	mul	r24, r10
     7e8:	60 01       	movw	r12, r0
     7ea:	8b 9d       	mul	r24, r11
     7ec:	d0 0c       	add	r13, r0
     7ee:	11 24       	eor	r1, r1
     7f0:	c6 01       	movw	r24, r12
     7f2:	8a 59       	subi	r24, 0x9A	; 154
     7f4:	9f 4f       	sbci	r25, 0xFF	; 255
     7f6:	6c 01       	movw	r12, r24
     7f8:	e1 2c       	mov	r14, r1
     7fa:	f1 2c       	mov	r15, r1
     7fc:	f6 01       	movw	r30, r12
     7fe:	ee 0d       	add	r30, r14
     800:	ff 1d       	adc	r31, r15
     802:	69 2d       	mov	r22, r9
     804:	6e 0d       	add	r22, r14
     806:	01 2f       	mov	r16, r17
     808:	27 81       	ldd	r18, Z+7	; 0x07
     80a:	48 2d       	mov	r20, r8
     80c:	ce 01       	movw	r24, r28
     80e:	ee de       	rcall	.-548    	; 0x5ec <_ZN7Display9PutColumnEhhhh>
     810:	9f ef       	ldi	r25, 0xFF	; 255
     812:	e9 1a       	sub	r14, r25
     814:	f9 0a       	sbc	r15, r25
     816:	87 e0       	ldi	r24, 0x07	; 7
     818:	e8 16       	cp	r14, r24
     81a:	f1 04       	cpc	r15, r1
     81c:	79 f7       	brne	.-34     	; 0x7fc <_ZN7Display7PutCharEhhhh+0xba>
     81e:	20 e0       	ldi	r18, 0x00	; 0
     820:	48 2d       	mov	r20, r8
     822:	65 2d       	mov	r22, r5
     824:	ce 01       	movw	r24, r28
     826:	e2 de       	rcall	.-572    	; 0x5ec <_ZN7Display9PutColumnEhhhh>
     828:	df 91       	pop	r29
     82a:	cf 91       	pop	r28
     82c:	1f 91       	pop	r17
     82e:	0f 91       	pop	r16
     830:	ff 90       	pop	r15
     832:	ef 90       	pop	r14
     834:	df 90       	pop	r13
     836:	cf 90       	pop	r12
     838:	bf 90       	pop	r11
     83a:	af 90       	pop	r10
     83c:	9f 90       	pop	r9
     83e:	8f 90       	pop	r8
     840:	7f 90       	pop	r7
     842:	6f 90       	pop	r6
     844:	5f 90       	pop	r5
     846:	08 95       	ret

00000848 <_ZN7Display9PutNumberEhhhih>:
     848:	4f 92       	push	r4
     84a:	5f 92       	push	r5
     84c:	7f 92       	push	r7
     84e:	8f 92       	push	r8
     850:	9f 92       	push	r9
     852:	af 92       	push	r10
     854:	bf 92       	push	r11
     856:	cf 92       	push	r12
     858:	df 92       	push	r13
     85a:	ef 92       	push	r14
     85c:	ff 92       	push	r15
     85e:	0f 93       	push	r16
     860:	1f 93       	push	r17
     862:	cf 93       	push	r28
     864:	df 93       	push	r29
     866:	1f 92       	push	r1
     868:	cd b7       	in	r28, 0x3d	; 61
     86a:	de b7       	in	r29, 0x3e	; 62
     86c:	6c 01       	movw	r12, r24
     86e:	84 2e       	mov	r8, r20
     870:	f2 2e       	mov	r15, r18
     872:	28 01       	movw	r4, r16
     874:	17 ff       	sbrs	r17, 7
     876:	0a c0       	rjmp	.+20     	; 0x88c <_ZN7Display9PutNumberEhhhih+0x44>
     878:	11 e0       	ldi	r17, 0x01	; 1
     87a:	16 0f       	add	r17, r22
     87c:	0e 2d       	mov	r16, r14
     87e:	2b e1       	ldi	r18, 0x1B	; 27
     880:	60 df       	rcall	.-320    	; 0x742 <_ZN7Display7PutCharEhhhh>
     882:	fa 94       	dec	r15
     884:	51 94       	neg	r5
     886:	41 94       	neg	r4
     888:	51 08       	sbc	r5, r1
     88a:	61 2f       	mov	r22, r17
     88c:	16 2f       	mov	r17, r22
     88e:	1f 0d       	add	r17, r15
     890:	11 50       	subi	r17, 0x01	; 1
     892:	91 2c       	mov	r9, r1
     894:	2a e0       	ldi	r18, 0x0A	; 10
     896:	a2 2e       	mov	r10, r18
     898:	b1 2c       	mov	r11, r1
     89a:	9f 14       	cp	r9, r15
     89c:	e9 f0       	breq	.+58     	; 0x8d8 <_ZN7Display9PutNumberEhhhih+0x90>
     89e:	99 20       	and	r9, r9
     8a0:	19 f0       	breq	.+6      	; 0x8a8 <_ZN7Display9PutNumberEhhhih+0x60>
     8a2:	41 14       	cp	r4, r1
     8a4:	51 04       	cpc	r5, r1
     8a6:	79 f0       	breq	.+30     	; 0x8c6 <_ZN7Display9PutNumberEhhhih+0x7e>
     8a8:	c2 01       	movw	r24, r4
     8aa:	b5 01       	movw	r22, r10
     8ac:	6b d3       	rcall	.+1750   	; 0xf84 <__divmodhi4>
     8ae:	76 2e       	mov	r7, r22
     8b0:	0e 2d       	mov	r16, r14
     8b2:	28 2f       	mov	r18, r24
     8b4:	48 2d       	mov	r20, r8
     8b6:	61 2f       	mov	r22, r17
     8b8:	c6 01       	movw	r24, r12
     8ba:	79 83       	std	Y+1, r23	; 0x01
     8bc:	42 df       	rcall	.-380    	; 0x742 <_ZN7Display7PutCharEhhhh>
     8be:	47 2c       	mov	r4, r7
     8c0:	79 81       	ldd	r23, Y+1	; 0x01
     8c2:	57 2e       	mov	r5, r23
     8c4:	06 c0       	rjmp	.+12     	; 0x8d2 <_ZN7Display9PutNumberEhhhih+0x8a>
     8c6:	0e 2d       	mov	r16, r14
     8c8:	20 e1       	ldi	r18, 0x10	; 16
     8ca:	48 2d       	mov	r20, r8
     8cc:	61 2f       	mov	r22, r17
     8ce:	c6 01       	movw	r24, r12
     8d0:	38 df       	rcall	.-400    	; 0x742 <_ZN7Display7PutCharEhhhh>
     8d2:	93 94       	inc	r9
     8d4:	11 50       	subi	r17, 0x01	; 1
     8d6:	e1 cf       	rjmp	.-62     	; 0x89a <_ZN7Display9PutNumberEhhhih+0x52>
     8d8:	0f 90       	pop	r0
     8da:	df 91       	pop	r29
     8dc:	cf 91       	pop	r28
     8de:	1f 91       	pop	r17
     8e0:	0f 91       	pop	r16
     8e2:	ff 90       	pop	r15
     8e4:	ef 90       	pop	r14
     8e6:	df 90       	pop	r13
     8e8:	cf 90       	pop	r12
     8ea:	bf 90       	pop	r11
     8ec:	af 90       	pop	r10
     8ee:	9f 90       	pop	r9
     8f0:	8f 90       	pop	r8
     8f2:	7f 90       	pop	r7
     8f4:	5f 90       	pop	r5
     8f6:	4f 90       	pop	r4
     8f8:	08 95       	ret

000008fa <_ZN7Display14PutPointNumberEhhhih>:
     8fa:	4f 92       	push	r4
     8fc:	5f 92       	push	r5
     8fe:	6f 92       	push	r6
     900:	7f 92       	push	r7
     902:	8f 92       	push	r8
     904:	9f 92       	push	r9
     906:	af 92       	push	r10
     908:	bf 92       	push	r11
     90a:	cf 92       	push	r12
     90c:	df 92       	push	r13
     90e:	ef 92       	push	r14
     910:	ff 92       	push	r15
     912:	0f 93       	push	r16
     914:	1f 93       	push	r17
     916:	cf 93       	push	r28
     918:	df 93       	push	r29
     91a:	1f 92       	push	r1
     91c:	cd b7       	in	r28, 0x3d	; 61
     91e:	de b7       	in	r29, 0x3e	; 62
     920:	6c 01       	movw	r12, r24
     922:	f4 2e       	mov	r15, r20
     924:	92 2e       	mov	r9, r18
     926:	28 01       	movw	r4, r16
     928:	17 ff       	sbrs	r17, 7
     92a:	0a c0       	rjmp	.+20     	; 0x940 <_ZN7Display14PutPointNumberEhhhih+0x46>
     92c:	11 e0       	ldi	r17, 0x01	; 1
     92e:	16 0f       	add	r17, r22
     930:	0e 2d       	mov	r16, r14
     932:	2b e1       	ldi	r18, 0x1B	; 27
     934:	06 df       	rcall	.-500    	; 0x742 <_ZN7Display7PutCharEhhhh>
     936:	9a 94       	dec	r9
     938:	51 94       	neg	r5
     93a:	41 94       	neg	r4
     93c:	51 08       	sbc	r5, r1
     93e:	61 2f       	mov	r22, r17
     940:	21 e0       	ldi	r18, 0x01	; 1
     942:	81 e0       	ldi	r24, 0x01	; 1
     944:	90 e0       	ldi	r25, 0x00	; 0
     946:	3a e0       	ldi	r19, 0x0A	; 10
     948:	29 15       	cp	r18, r9
     94a:	40 f4       	brcc	.+16     	; 0x95c <_ZN7Display14PutPointNumberEhhhih+0x62>
     94c:	ac 01       	movw	r20, r24
     94e:	34 9f       	mul	r19, r20
     950:	c0 01       	movw	r24, r0
     952:	35 9f       	mul	r19, r21
     954:	90 0d       	add	r25, r0
     956:	11 24       	eor	r1, r1
     958:	2f 5f       	subi	r18, 0xFF	; 255
     95a:	f6 cf       	rjmp	.-20     	; 0x948 <_ZN7Display14PutPointNumberEhhhih+0x4e>
     95c:	89 2c       	mov	r8, r9
     95e:	86 0e       	add	r8, r22
     960:	48 16       	cp	r4, r24
     962:	59 06       	cpc	r5, r25
     964:	7c f5       	brge	.+94     	; 0x9c4 <_ZN7Display14PutPointNumberEhhhih+0xca>
     966:	78 2c       	mov	r7, r8
     968:	9a 94       	dec	r9
     96a:	81 2c       	mov	r8, r1
     96c:	4a e0       	ldi	r20, 0x0A	; 10
     96e:	a4 2e       	mov	r10, r20
     970:	b1 2c       	mov	r11, r1
     972:	89 14       	cp	r8, r9
     974:	08 f0       	brcs	.+2      	; 0x978 <_ZN7Display14PutPointNumberEhhhih+0x7e>
     976:	4a c0       	rjmp	.+148    	; 0xa0c <_ZN7Display14PutPointNumberEhhhih+0x112>
     978:	1f ef       	ldi	r17, 0xFF	; 255
     97a:	17 0d       	add	r17, r7
     97c:	51 e0       	ldi	r21, 0x01	; 1
     97e:	58 15       	cp	r21, r8
     980:	18 f4       	brcc	.+6      	; 0x988 <_ZN7Display14PutPointNumberEhhhih+0x8e>
     982:	41 14       	cp	r4, r1
     984:	51 04       	cpc	r5, r1
     986:	a9 f0       	breq	.+42     	; 0x9b2 <_ZN7Display14PutPointNumberEhhhih+0xb8>
     988:	c2 01       	movw	r24, r4
     98a:	b5 01       	movw	r22, r10
     98c:	fb d2       	rcall	.+1526   	; 0xf84 <__divmodhi4>
     98e:	66 2e       	mov	r6, r22
     990:	0e 2d       	mov	r16, r14
     992:	28 2f       	mov	r18, r24
     994:	4f 2d       	mov	r20, r15
     996:	61 2f       	mov	r22, r17
     998:	c6 01       	movw	r24, r12
     99a:	79 83       	std	Y+1, r23	; 0x01
     99c:	d2 de       	rcall	.-604    	; 0x742 <_ZN7Display7PutCharEhhhh>
     99e:	46 2c       	mov	r4, r6
     9a0:	79 81       	ldd	r23, Y+1	; 0x01
     9a2:	57 2e       	mov	r5, r23
     9a4:	81 10       	cpse	r8, r1
     9a6:	0b c0       	rjmp	.+22     	; 0x9be <_ZN7Display14PutPointNumberEhhhih+0xc4>
     9a8:	1e ef       	ldi	r17, 0xFE	; 254
     9aa:	17 0d       	add	r17, r7
     9ac:	0e 2d       	mov	r16, r14
     9ae:	21 e1       	ldi	r18, 0x11	; 17
     9b0:	02 c0       	rjmp	.+4      	; 0x9b6 <_ZN7Display14PutPointNumberEhhhih+0xbc>
     9b2:	0e 2d       	mov	r16, r14
     9b4:	20 e1       	ldi	r18, 0x10	; 16
     9b6:	4f 2d       	mov	r20, r15
     9b8:	61 2f       	mov	r22, r17
     9ba:	c6 01       	movw	r24, r12
     9bc:	c2 de       	rcall	.-636    	; 0x742 <_ZN7Display7PutCharEhhhh>
     9be:	83 94       	inc	r8
     9c0:	71 2e       	mov	r7, r17
     9c2:	d7 cf       	rjmp	.-82     	; 0x972 <_ZN7Display14PutPointNumberEhhhih+0x78>
     9c4:	8a 94       	dec	r8
     9c6:	10 e0       	ldi	r17, 0x00	; 0
     9c8:	3a e0       	ldi	r19, 0x0A	; 10
     9ca:	a3 2e       	mov	r10, r19
     9cc:	b1 2c       	mov	r11, r1
     9ce:	19 15       	cp	r17, r9
     9d0:	e9 f0       	breq	.+58     	; 0xa0c <_ZN7Display14PutPointNumberEhhhih+0x112>
     9d2:	11 23       	and	r17, r17
     9d4:	19 f0       	breq	.+6      	; 0x9dc <_ZN7Display14PutPointNumberEhhhih+0xe2>
     9d6:	41 14       	cp	r4, r1
     9d8:	51 04       	cpc	r5, r1
     9da:	79 f0       	breq	.+30     	; 0x9fa <_ZN7Display14PutPointNumberEhhhih+0x100>
     9dc:	c2 01       	movw	r24, r4
     9de:	b5 01       	movw	r22, r10
     9e0:	d1 d2       	rcall	.+1442   	; 0xf84 <__divmodhi4>
     9e2:	76 2e       	mov	r7, r22
     9e4:	0e 2d       	mov	r16, r14
     9e6:	28 2f       	mov	r18, r24
     9e8:	4f 2d       	mov	r20, r15
     9ea:	68 2d       	mov	r22, r8
     9ec:	c6 01       	movw	r24, r12
     9ee:	79 83       	std	Y+1, r23	; 0x01
     9f0:	a8 de       	rcall	.-688    	; 0x742 <_ZN7Display7PutCharEhhhh>
     9f2:	47 2c       	mov	r4, r7
     9f4:	79 81       	ldd	r23, Y+1	; 0x01
     9f6:	57 2e       	mov	r5, r23
     9f8:	06 c0       	rjmp	.+12     	; 0xa06 <_ZN7Display14PutPointNumberEhhhih+0x10c>
     9fa:	0e 2d       	mov	r16, r14
     9fc:	20 e1       	ldi	r18, 0x10	; 16
     9fe:	4f 2d       	mov	r20, r15
     a00:	68 2d       	mov	r22, r8
     a02:	c6 01       	movw	r24, r12
     a04:	9e de       	rcall	.-708    	; 0x742 <_ZN7Display7PutCharEhhhh>
     a06:	1f 5f       	subi	r17, 0xFF	; 255
     a08:	8a 94       	dec	r8
     a0a:	e1 cf       	rjmp	.-62     	; 0x9ce <_ZN7Display14PutPointNumberEhhhih+0xd4>
     a0c:	0f 90       	pop	r0
     a0e:	df 91       	pop	r29
     a10:	cf 91       	pop	r28
     a12:	1f 91       	pop	r17
     a14:	0f 91       	pop	r16
     a16:	ff 90       	pop	r15
     a18:	ef 90       	pop	r14
     a1a:	df 90       	pop	r13
     a1c:	cf 90       	pop	r12
     a1e:	bf 90       	pop	r11
     a20:	af 90       	pop	r10
     a22:	9f 90       	pop	r9
     a24:	8f 90       	pop	r8
     a26:	7f 90       	pop	r7
     a28:	6f 90       	pop	r6
     a2a:	5f 90       	pop	r5
     a2c:	4f 90       	pop	r4
     a2e:	08 95       	ret

00000a30 <_ZN7Display12PutHexNumberEhhhjh>:
     a30:	af 92       	push	r10
     a32:	bf 92       	push	r11
     a34:	cf 92       	push	r12
     a36:	df 92       	push	r13
     a38:	ef 92       	push	r14
     a3a:	ff 92       	push	r15
     a3c:	0f 93       	push	r16
     a3e:	1f 93       	push	r17
     a40:	cf 93       	push	r28
     a42:	df 93       	push	r29
     a44:	6c 01       	movw	r12, r24
     a46:	b6 2e       	mov	r11, r22
     a48:	a4 2e       	mov	r10, r20
     a4a:	f2 2e       	mov	r15, r18
     a4c:	e8 01       	movw	r28, r16
     a4e:	f6 0e       	add	r15, r22
     a50:	fb 14       	cp	r15, r11
     a52:	71 f0       	breq	.+28     	; 0xa70 <_ZN7Display12PutHexNumberEhhhjh+0x40>
     a54:	fa 94       	dec	r15
     a56:	2c 2f       	mov	r18, r28
     a58:	2f 70       	andi	r18, 0x0F	; 15
     a5a:	0e 2d       	mov	r16, r14
     a5c:	4a 2d       	mov	r20, r10
     a5e:	6f 2d       	mov	r22, r15
     a60:	c6 01       	movw	r24, r12
     a62:	6f de       	rcall	.-802    	; 0x742 <_ZN7Display7PutCharEhhhh>
     a64:	54 e0       	ldi	r21, 0x04	; 4
     a66:	d6 95       	lsr	r29
     a68:	c7 95       	ror	r28
     a6a:	5a 95       	dec	r21
     a6c:	e1 f7       	brne	.-8      	; 0xa66 <_ZN7Display12PutHexNumberEhhhjh+0x36>
     a6e:	f0 cf       	rjmp	.-32     	; 0xa50 <_ZN7Display12PutHexNumberEhhhjh+0x20>
     a70:	df 91       	pop	r29
     a72:	cf 91       	pop	r28
     a74:	1f 91       	pop	r17
     a76:	0f 91       	pop	r16
     a78:	ff 90       	pop	r15
     a7a:	ef 90       	pop	r14
     a7c:	df 90       	pop	r13
     a7e:	cf 90       	pop	r12
     a80:	bf 90       	pop	r11
     a82:	af 90       	pop	r10
     a84:	08 95       	ret

00000a86 <_ZN7Display6WakeUpEv>:
     a86:	20 e4       	ldi	r18, 0x40	; 64
     a88:	3f e1       	ldi	r19, 0x1F	; 31
     a8a:	fc 01       	movw	r30, r24
     a8c:	33 83       	std	Z+3, r19	; 0x03
     a8e:	22 83       	std	Z+2, r18	; 0x02
     a90:	08 95       	ret

00000a92 <_ZN5Drive16InterruptHandlerEv>:
     a92:	fc 01       	movw	r30, r24
     a94:	84 81       	ldd	r24, Z+4	; 0x04
     a96:	8d bd       	out	0x2d, r24	; 45
     a98:	83 81       	ldd	r24, Z+3	; 0x03
     a9a:	8c bd       	out	0x2c, r24	; 44
     a9c:	82 81       	ldd	r24, Z+2	; 0x02
     a9e:	88 23       	and	r24, r24
     aa0:	a1 f0       	breq	.+40     	; 0xaca <_ZN5Drive16InterruptHandlerEv+0x38>
     aa2:	90 81       	ld	r25, Z
     aa4:	81 81       	ldd	r24, Z+1	; 0x01
     aa6:	99 23       	and	r25, r25
     aa8:	11 f0       	breq	.+4      	; 0xaae <_ZN5Drive16InterruptHandlerEv+0x1c>
     aaa:	8f 5f       	subi	r24, 0xFF	; 255
     aac:	01 c0       	rjmp	.+2      	; 0xab0 <_ZN5Drive16InterruptHandlerEv+0x1e>
     aae:	81 50       	subi	r24, 0x01	; 1
     ab0:	81 83       	std	Z+1, r24	; 0x01
     ab2:	91 81       	ldd	r25, Z+1	; 0x01
     ab4:	93 70       	andi	r25, 0x03	; 3
     ab6:	91 83       	std	Z+1, r25	; 0x01
     ab8:	82 b3       	in	r24, 0x12	; 18
     aba:	e9 2f       	mov	r30, r25
     abc:	f0 e0       	ldi	r31, 0x00	; 0
     abe:	e2 51       	subi	r30, 0x12	; 18
     ac0:	fe 4f       	sbci	r31, 0xFE	; 254
     ac2:	80 7f       	andi	r24, 0xF0	; 240
     ac4:	90 81       	ld	r25, Z
     ac6:	89 2b       	or	r24, r25
     ac8:	82 bb       	out	0x12, r24	; 18
     aca:	08 95       	ret

00000acc <_ZN5Drive8SetSpeedEi>:
     acc:	fc 01       	movw	r30, r24
     ace:	76 83       	std	Z+6, r23	; 0x06
     ad0:	65 83       	std	Z+5, r22	; 0x05
     ad2:	77 ff       	sbrs	r23, 7
     ad4:	05 c0       	rjmp	.+10     	; 0xae0 <_ZN5Drive8SetSpeedEi+0x14>
     ad6:	10 82       	st	Z, r1
     ad8:	71 95       	neg	r23
     ada:	61 95       	neg	r22
     adc:	71 09       	sbc	r23, r1
     ade:	07 c0       	rjmp	.+14     	; 0xaee <_ZN5Drive8SetSpeedEi+0x22>
     ae0:	81 e0       	ldi	r24, 0x01	; 1
     ae2:	80 83       	st	Z, r24
     ae4:	61 15       	cp	r22, r1
     ae6:	71 05       	cpc	r23, r1
     ae8:	11 f4       	brne	.+4      	; 0xaee <_ZN5Drive8SetSpeedEi+0x22>
     aea:	61 e0       	ldi	r22, 0x01	; 1
     aec:	70 e0       	ldi	r23, 0x00	; 0
     aee:	71 95       	neg	r23
     af0:	61 95       	neg	r22
     af2:	71 09       	sbc	r23, r1
     af4:	74 83       	std	Z+4, r23	; 0x04
     af6:	63 83       	std	Z+3, r22	; 0x03
     af8:	81 e0       	ldi	r24, 0x01	; 1
     afa:	82 83       	std	Z+2, r24	; 0x02
     afc:	08 95       	ret

00000afe <_ZN5Drive14SetSpeedFactorEa>:
     afe:	fc 01       	movw	r30, r24
     b00:	61 11       	cpse	r22, r1
     b02:	01 c0       	rjmp	.+2      	; 0xb06 <_ZN5Drive14SetSpeedFactorEa+0x8>
     b04:	12 82       	std	Z+2, r1	; 0x02
     b06:	77 27       	eor	r23, r23
     b08:	67 fd       	sbrc	r22, 7
     b0a:	70 95       	com	r23
     b0c:	84 ec       	ldi	r24, 0xC4	; 196
     b0e:	94 ea       	ldi	r25, 0xA4	; 164
     b10:	39 d2       	rcall	.+1138   	; 0xf84 <__divmodhi4>
     b12:	cf 01       	movw	r24, r30
     b14:	db cf       	rjmp	.-74     	; 0xacc <_ZN5Drive8SetSpeedEi>

00000b16 <_ZN5DriveC1Ev>:
     b16:	cf 93       	push	r28
     b18:	df 93       	push	r29
     b1a:	ec 01       	movw	r28, r24
     b1c:	90 93 f9 01 	sts	0x01F9, r25
     b20:	80 93 f8 01 	sts	0x01F8, r24
     b24:	19 82       	std	Y+1, r1	; 0x01
     b26:	61 ee       	ldi	r22, 0xE1	; 225
     b28:	76 ef       	ldi	r23, 0xF6	; 246
     b2a:	d0 df       	rcall	.-96     	; 0xacc <_ZN5Drive8SetSpeedEi>
     b2c:	81 b3       	in	r24, 0x11	; 17
     b2e:	8f 60       	ori	r24, 0x0F	; 15
     b30:	81 bb       	out	0x11, r24	; 17
     b32:	82 b3       	in	r24, 0x12	; 18
     b34:	80 7f       	andi	r24, 0xF0	; 240
     b36:	82 bb       	out	0x12, r24	; 18
     b38:	1f bc       	out	0x2f, r1	; 47
     b3a:	83 e0       	ldi	r24, 0x03	; 3
     b3c:	8e bd       	out	0x2e, r24	; 46
     b3e:	8c 81       	ldd	r24, Y+4	; 0x04
     b40:	8d bd       	out	0x2d, r24	; 45
     b42:	8b 81       	ldd	r24, Y+3	; 0x03
     b44:	8c bd       	out	0x2c, r24	; 44
     b46:	89 b7       	in	r24, 0x39	; 57
     b48:	84 60       	ori	r24, 0x04	; 4
     b4a:	89 bf       	out	0x39, r24	; 57
     b4c:	78 94       	sei
     b4e:	df 91       	pop	r29
     b50:	cf 91       	pop	r28
     b52:	08 95       	ret

00000b54 <_ZN5Drive7SetModeEh>:
     b54:	fc 01       	movw	r30, r24
     b56:	61 11       	cpse	r22, r1
     b58:	02 c0       	rjmp	.+4      	; 0xb5e <_ZN5Drive7SetModeEh+0xa>
     b5a:	12 82       	std	Z+2, r1	; 0x02
     b5c:	08 95       	ret
     b5e:	61 30       	cpi	r22, 0x01	; 1
     b60:	19 f4       	brne	.+6      	; 0xb68 <_ZN5Drive7SetModeEh+0x14>
     b62:	65 81       	ldd	r22, Z+5	; 0x05
     b64:	76 81       	ldd	r23, Z+6	; 0x06
     b66:	b2 cf       	rjmp	.-156    	; 0xacc <_ZN5Drive8SetSpeedEi>
     b68:	62 30       	cpi	r22, 0x02	; 2
     b6a:	19 f4       	brne	.+6      	; 0xb72 <_ZN5Drive7SetModeEh+0x1e>
     b6c:	81 e0       	ldi	r24, 0x01	; 1
     b6e:	80 83       	st	Z, r24
     b70:	03 c0       	rjmp	.+6      	; 0xb78 <_ZN5Drive7SetModeEh+0x24>
     b72:	63 30       	cpi	r22, 0x03	; 3
     b74:	31 f4       	brne	.+12     	; 0xb82 <_ZN5Drive7SetModeEh+0x2e>
     b76:	10 82       	st	Z, r1
     b78:	8f e8       	ldi	r24, 0x8F	; 143
     b7a:	9d ef       	ldi	r25, 0xFD	; 253
     b7c:	94 83       	std	Z+4, r25	; 0x04
     b7e:	83 83       	std	Z+3, r24	; 0x03
     b80:	62 83       	std	Z+2, r22	; 0x02
     b82:	08 95       	ret

00000b84 <_ZN5Drive8GetSpeedEv>:
     b84:	fc 01       	movw	r30, r24
     b86:	22 81       	ldd	r18, Z+2	; 0x02
     b88:	21 30       	cpi	r18, 0x01	; 1
     b8a:	19 f4       	brne	.+6      	; 0xb92 <_ZN5Drive8GetSpeedEv+0xe>
     b8c:	85 81       	ldd	r24, Z+5	; 0x05
     b8e:	96 81       	ldd	r25, Z+6	; 0x06
     b90:	08 95       	ret
     b92:	22 30       	cpi	r18, 0x02	; 2
     b94:	29 f0       	breq	.+10     	; 0xba0 <_ZN5Drive8GetSpeedEv+0x1c>
     b96:	23 30       	cpi	r18, 0x03	; 3
     b98:	31 f4       	brne	.+12     	; 0xba6 <_ZN5Drive8GetSpeedEv+0x22>
     b9a:	8f e8       	ldi	r24, 0x8F	; 143
     b9c:	9d ef       	ldi	r25, 0xFD	; 253
     b9e:	08 95       	ret
     ba0:	81 e7       	ldi	r24, 0x71	; 113
     ba2:	92 e0       	ldi	r25, 0x02	; 2
     ba4:	08 95       	ret
     ba6:	80 e0       	ldi	r24, 0x00	; 0
     ba8:	90 e0       	ldi	r25, 0x00	; 0
     baa:	08 95       	ret

00000bac <_ZN5Drive14GetSpeedFactorEv>:
     bac:	eb df       	rcall	.-42     	; 0xb84 <_ZN5Drive8GetSpeedEv>
     bae:	9c 01       	movw	r18, r24
     bb0:	44 27       	eor	r20, r20
     bb2:	37 fd       	sbrc	r19, 7
     bb4:	40 95       	com	r20
     bb6:	54 2f       	mov	r21, r20
     bb8:	64 ec       	ldi	r22, 0xC4	; 196
     bba:	74 ea       	ldi	r23, 0xA4	; 164
     bbc:	8f ef       	ldi	r24, 0xFF	; 255
     bbe:	9f ef       	ldi	r25, 0xFF	; 255
     bc0:	16 d2       	rcall	.+1068   	; 0xfee <__divmodsi4>
     bc2:	20 38       	cpi	r18, 0x80	; 128
     bc4:	31 05       	cpc	r19, r1
     bc6:	41 05       	cpc	r20, r1
     bc8:	51 05       	cpc	r21, r1
     bca:	5c f4       	brge	.+22     	; 0xbe2 <_ZN5Drive14GetSpeedFactorEv+0x36>
     bcc:	20 38       	cpi	r18, 0x80	; 128
     bce:	8f ef       	ldi	r24, 0xFF	; 255
     bd0:	38 07       	cpc	r19, r24
     bd2:	48 07       	cpc	r20, r24
     bd4:	58 07       	cpc	r21, r24
     bd6:	4c f4       	brge	.+18     	; 0xbea <_ZN5Drive14GetSpeedFactorEv+0x3e>
     bd8:	20 e8       	ldi	r18, 0x80	; 128
     bda:	3f ef       	ldi	r19, 0xFF	; 255
     bdc:	4f ef       	ldi	r20, 0xFF	; 255
     bde:	5f ef       	ldi	r21, 0xFF	; 255
     be0:	04 c0       	rjmp	.+8      	; 0xbea <_ZN5Drive14GetSpeedFactorEv+0x3e>
     be2:	2f e7       	ldi	r18, 0x7F	; 127
     be4:	30 e0       	ldi	r19, 0x00	; 0
     be6:	40 e0       	ldi	r20, 0x00	; 0
     be8:	50 e0       	ldi	r21, 0x00	; 0
     bea:	82 2f       	mov	r24, r18
     bec:	08 95       	ret

00000bee <__vector_8>:
     bee:	1f 92       	push	r1
     bf0:	0f 92       	push	r0
     bf2:	0f b6       	in	r0, 0x3f	; 63
     bf4:	0f 92       	push	r0
     bf6:	11 24       	eor	r1, r1
     bf8:	2f 93       	push	r18
     bfa:	3f 93       	push	r19
     bfc:	4f 93       	push	r20
     bfe:	5f 93       	push	r21
     c00:	6f 93       	push	r22
     c02:	7f 93       	push	r23
     c04:	8f 93       	push	r24
     c06:	9f 93       	push	r25
     c08:	af 93       	push	r26
     c0a:	bf 93       	push	r27
     c0c:	ef 93       	push	r30
     c0e:	ff 93       	push	r31
     c10:	80 91 f8 01 	lds	r24, 0x01F8
     c14:	90 91 f9 01 	lds	r25, 0x01F9
     c18:	3c df       	rcall	.-392    	; 0xa92 <_ZN5Drive16InterruptHandlerEv>
     c1a:	ff 91       	pop	r31
     c1c:	ef 91       	pop	r30
     c1e:	bf 91       	pop	r27
     c20:	af 91       	pop	r26
     c22:	9f 91       	pop	r25
     c24:	8f 91       	pop	r24
     c26:	7f 91       	pop	r23
     c28:	6f 91       	pop	r22
     c2a:	5f 91       	pop	r21
     c2c:	4f 91       	pop	r20
     c2e:	3f 91       	pop	r19
     c30:	2f 91       	pop	r18
     c32:	0f 90       	pop	r0
     c34:	0f be       	out	0x3f, r0	; 63
     c36:	0f 90       	pop	r0
     c38:	1f 90       	pop	r1
     c3a:	18 95       	reti

00000c3c <_ZN8IntervalC1Ev>:
     c3c:	fc 01       	movw	r30, r24
     c3e:	90 93 fb 01 	sts	0x01FB, r25
     c42:	80 93 fa 01 	sts	0x01FA, r24
     c46:	13 8a       	std	Z+19, r1	; 0x13
     c48:	12 8a       	std	Z+18, r1	; 0x12
     c4a:	15 86       	std	Z+13, r1	; 0x0d
     c4c:	14 86       	std	Z+12, r1	; 0x0c
     c4e:	17 86       	std	Z+15, r1	; 0x0f
     c50:	16 86       	std	Z+14, r1	; 0x0e
     c52:	11 8a       	std	Z+17, r1	; 0x11
     c54:	10 8a       	std	Z+16, r1	; 0x10
     c56:	84 e0       	ldi	r24, 0x04	; 4
     c58:	85 bd       	out	0x25, r24	; 37
     c5a:	81 ee       	ldi	r24, 0xE1	; 225
     c5c:	84 bd       	out	0x24, r24	; 36
     c5e:	89 b7       	in	r24, 0x39	; 57
     c60:	80 64       	ori	r24, 0x40	; 64
     c62:	89 bf       	out	0x39, r24	; 57
     c64:	78 94       	sei
     c66:	08 95       	ret

00000c68 <_ZN8Interval16InterruptHandlerEv>:
     c68:	1f 93       	push	r17
     c6a:	cf 93       	push	r28
     c6c:	df 93       	push	r29
     c6e:	ec 01       	movw	r28, r24
     c70:	8a 89       	ldd	r24, Y+18	; 0x12
     c72:	9b 89       	ldd	r25, Y+19	; 0x13
     c74:	01 96       	adiw	r24, 0x01	; 1
     c76:	9b 8b       	std	Y+19, r25	; 0x13
     c78:	8a 8b       	std	Y+18, r24	; 0x12
     c7a:	81 ee       	ldi	r24, 0xE1	; 225
     c7c:	84 bd       	out	0x24, r24	; 36
     c7e:	13 e0       	ldi	r17, 0x03	; 3
     c80:	2c 85       	ldd	r18, Y+12	; 0x0c
     c82:	3d 85       	ldd	r19, Y+13	; 0x0d
     c84:	21 15       	cp	r18, r1
     c86:	31 05       	cpc	r19, r1
     c88:	99 f0       	breq	.+38     	; 0xcb0 <_ZN8Interval16InterruptHandlerEv+0x48>
     c8a:	8e 81       	ldd	r24, Y+6	; 0x06
     c8c:	9f 81       	ldd	r25, Y+7	; 0x07
     c8e:	01 96       	adiw	r24, 0x01	; 1
     c90:	9f 83       	std	Y+7, r25	; 0x07
     c92:	8e 83       	std	Y+6, r24	; 0x06
     c94:	82 17       	cp	r24, r18
     c96:	93 07       	cpc	r25, r19
     c98:	58 f0       	brcs	.+22     	; 0xcb0 <_ZN8Interval16InterruptHandlerEv+0x48>
     c9a:	1f 82       	std	Y+7, r1	; 0x07
     c9c:	1e 82       	std	Y+6, r1	; 0x06
     c9e:	88 81       	ld	r24, Y
     ca0:	99 81       	ldd	r25, Y+1	; 0x01
     ca2:	dc 01       	movw	r26, r24
     ca4:	ed 91       	ld	r30, X+
     ca6:	fc 91       	ld	r31, X
     ca8:	01 90       	ld	r0, Z+
     caa:	f0 81       	ld	r31, Z
     cac:	e0 2d       	mov	r30, r0
     cae:	09 95       	icall
     cb0:	11 50       	subi	r17, 0x01	; 1
     cb2:	22 96       	adiw	r28, 0x02	; 2
     cb4:	11 11       	cpse	r17, r1
     cb6:	e4 cf       	rjmp	.-56     	; 0xc80 <_ZN8Interval16InterruptHandlerEv+0x18>
     cb8:	df 91       	pop	r29
     cba:	cf 91       	pop	r28
     cbc:	1f 91       	pop	r17
     cbe:	08 95       	ret

00000cc0 <_ZN8Interval11addListenerEP16IntervalListenerj>:
     cc0:	fc 01       	movw	r30, r24
     cc2:	84 85       	ldd	r24, Z+12	; 0x0c
     cc4:	95 85       	ldd	r25, Z+13	; 0x0d
     cc6:	89 2b       	or	r24, r25
     cc8:	51 f0       	breq	.+20     	; 0xcde <_ZN8Interval11addListenerEP16IntervalListenerj+0x1e>
     cca:	86 85       	ldd	r24, Z+14	; 0x0e
     ccc:	97 85       	ldd	r25, Z+15	; 0x0f
     cce:	89 2b       	or	r24, r25
     cd0:	41 f0       	breq	.+16     	; 0xce2 <_ZN8Interval11addListenerEP16IntervalListenerj+0x22>
     cd2:	80 89       	ldd	r24, Z+16	; 0x10
     cd4:	91 89       	ldd	r25, Z+17	; 0x11
     cd6:	89 2b       	or	r24, r25
     cd8:	31 f4       	brne	.+12     	; 0xce6 <_ZN8Interval11addListenerEP16IntervalListenerj+0x26>
     cda:	82 e0       	ldi	r24, 0x02	; 2
     cdc:	05 c0       	rjmp	.+10     	; 0xce8 <_ZN8Interval11addListenerEP16IntervalListenerj+0x28>
     cde:	80 e0       	ldi	r24, 0x00	; 0
     ce0:	03 c0       	rjmp	.+6      	; 0xce8 <_ZN8Interval11addListenerEP16IntervalListenerj+0x28>
     ce2:	81 e0       	ldi	r24, 0x01	; 1
     ce4:	01 c0       	rjmp	.+2      	; 0xce8 <_ZN8Interval11addListenerEP16IntervalListenerj+0x28>
     ce6:	83 e0       	ldi	r24, 0x03	; 3
     ce8:	e8 0f       	add	r30, r24
     cea:	f1 1d       	adc	r31, r1
     cec:	e8 0f       	add	r30, r24
     cee:	f1 1d       	adc	r31, r1
     cf0:	17 82       	std	Z+7, r1	; 0x07
     cf2:	16 82       	std	Z+6, r1	; 0x06
     cf4:	71 83       	std	Z+1, r23	; 0x01
     cf6:	60 83       	st	Z, r22
     cf8:	80 ea       	ldi	r24, 0xA0	; 160
     cfa:	9f e0       	ldi	r25, 0x0F	; 15
     cfc:	ba 01       	movw	r22, r20
     cfe:	2e d1       	rcall	.+604    	; 0xf5c <__udivmodhi4>
     d00:	61 15       	cp	r22, r1
     d02:	71 05       	cpc	r23, r1
     d04:	19 f0       	breq	.+6      	; 0xd0c <_ZN8Interval11addListenerEP16IntervalListenerj+0x4c>
     d06:	75 87       	std	Z+13, r23	; 0x0d
     d08:	64 87       	std	Z+12, r22	; 0x0c
     d0a:	08 95       	ret
     d0c:	81 e0       	ldi	r24, 0x01	; 1
     d0e:	90 e0       	ldi	r25, 0x00	; 0
     d10:	95 87       	std	Z+13, r25	; 0x0d
     d12:	84 87       	std	Z+12, r24	; 0x0c
     d14:	08 95       	ret

00000d16 <_ZN8Interval12getMsCounterEv>:
     d16:	fc 01       	movw	r30, r24
     d18:	22 89       	ldd	r18, Z+18	; 0x12
     d1a:	33 89       	ldd	r19, Z+19	; 0x13
     d1c:	a8 ee       	ldi	r26, 0xE8	; 232
     d1e:	b3 e0       	ldi	r27, 0x03	; 3
     d20:	11 d1       	rcall	.+546    	; 0xf44 <__umulhisi3>
     d22:	20 ea       	ldi	r18, 0xA0	; 160
     d24:	3f e0       	ldi	r19, 0x0F	; 15
     d26:	40 e0       	ldi	r20, 0x00	; 0
     d28:	50 e0       	ldi	r21, 0x00	; 0
     d2a:	3f d1       	rcall	.+638    	; 0xfaa <__udivmodsi4>
     d2c:	c9 01       	movw	r24, r18
     d2e:	08 95       	ret

00000d30 <__vector_4>:
     d30:	1f 92       	push	r1
     d32:	0f 92       	push	r0
     d34:	0f b6       	in	r0, 0x3f	; 63
     d36:	0f 92       	push	r0
     d38:	11 24       	eor	r1, r1
     d3a:	2f 93       	push	r18
     d3c:	3f 93       	push	r19
     d3e:	4f 93       	push	r20
     d40:	5f 93       	push	r21
     d42:	6f 93       	push	r22
     d44:	7f 93       	push	r23
     d46:	8f 93       	push	r24
     d48:	9f 93       	push	r25
     d4a:	af 93       	push	r26
     d4c:	bf 93       	push	r27
     d4e:	ef 93       	push	r30
     d50:	ff 93       	push	r31
     d52:	80 91 fa 01 	lds	r24, 0x01FA
     d56:	90 91 fb 01 	lds	r25, 0x01FB
     d5a:	86 df       	rcall	.-244    	; 0xc68 <_ZN8Interval16InterruptHandlerEv>
     d5c:	ff 91       	pop	r31
     d5e:	ef 91       	pop	r30
     d60:	bf 91       	pop	r27
     d62:	af 91       	pop	r26
     d64:	9f 91       	pop	r25
     d66:	8f 91       	pop	r24
     d68:	7f 91       	pop	r23
     d6a:	6f 91       	pop	r22
     d6c:	5f 91       	pop	r21
     d6e:	4f 91       	pop	r20
     d70:	3f 91       	pop	r19
     d72:	2f 91       	pop	r18
     d74:	0f 90       	pop	r0
     d76:	0f be       	out	0x3f, r0	; 63
     d78:	0f 90       	pop	r0
     d7a:	1f 90       	pop	r1
     d7c:	18 95       	reti

00000d7e <_ZN8KeyboardC1EP8Interval>:
     d7e:	fc 01       	movw	r30, r24
     d80:	71 83       	std	Z+1, r23	; 0x01
     d82:	60 83       	st	Z, r22
     d84:	12 82       	std	Z+2, r1	; 0x02
     d86:	13 82       	std	Z+3, r1	; 0x03
     d88:	14 82       	std	Z+4, r1	; 0x04
     d8a:	16 82       	std	Z+6, r1	; 0x06
     d8c:	15 82       	std	Z+5, r1	; 0x05
     d8e:	17 82       	std	Z+7, r1	; 0x07
     d90:	10 86       	std	Z+8, r1	; 0x08
     d92:	a5 98       	cbi	0x14, 5	; 20
     d94:	ad 9a       	sbi	0x15, 5	; 21
     d96:	8f 98       	cbi	0x11, 7	; 17
     d98:	97 9a       	sbi	0x12, 7	; 18
     d9a:	08 95       	ret

00000d9c <_ZN8Keyboard18GetDebouncedButtonEv>:
     d9c:	fc 01       	movw	r30, r24
     d9e:	83 b3       	in	r24, 0x13	; 19
     da0:	85 fb       	bst	r24, 5
     da2:	88 27       	eor	r24, r24
     da4:	80 f9       	bld	r24, 0
     da6:	91 e0       	ldi	r25, 0x01	; 1
     da8:	89 27       	eor	r24, r25
     daa:	87 9b       	sbis	0x10, 7	; 16
     dac:	82 60       	ori	r24, 0x02	; 2
     dae:	93 81       	ldd	r25, Z+3	; 0x03
     db0:	89 17       	cp	r24, r25
     db2:	41 f0       	breq	.+16     	; 0xdc4 <_ZN8Keyboard18GetDebouncedButtonEv+0x28>
     db4:	22 81       	ldd	r18, Z+2	; 0x02
     db6:	20 32       	cpi	r18, 0x20	; 32
     db8:	20 f4       	brcc	.+8      	; 0xdc2 <_ZN8Keyboard18GetDebouncedButtonEv+0x26>
     dba:	2f 5f       	subi	r18, 0xFF	; 255
     dbc:	22 83       	std	Z+2, r18	; 0x02
     dbe:	89 2f       	mov	r24, r25
     dc0:	08 95       	ret
     dc2:	83 83       	std	Z+3, r24	; 0x03
     dc4:	12 82       	std	Z+2, r1	; 0x02
     dc6:	08 95       	ret

00000dc8 <_ZN8Keyboard11UpdateEventEv>:
     dc8:	1f 93       	push	r17
     dca:	cf 93       	push	r28
     dcc:	df 93       	push	r29
     dce:	ec 01       	movw	r28, r24
     dd0:	e5 df       	rcall	.-54     	; 0xd9c <_ZN8Keyboard18GetDebouncedButtonEv>
     dd2:	18 2f       	mov	r17, r24
     dd4:	8c 81       	ldd	r24, Y+4	; 0x04
     dd6:	81 11       	cpse	r24, r1
     dd8:	0b c0       	rjmp	.+22     	; 0xdf0 <_ZN8Keyboard11UpdateEventEv+0x28>
     dda:	11 23       	and	r17, r17
     ddc:	41 f1       	breq	.+80     	; 0xe2e <_ZN8Keyboard11UpdateEventEv+0x66>
     dde:	1f 82       	std	Y+7, r1	; 0x07
     de0:	88 81       	ld	r24, Y
     de2:	99 81       	ldd	r25, Y+1	; 0x01
     de4:	98 df       	rcall	.-208    	; 0xd16 <_ZN8Interval12getMsCounterEv>
     de6:	9e 83       	std	Y+6, r25	; 0x06
     de8:	8d 83       	std	Y+5, r24	; 0x05
     dea:	81 2f       	mov	r24, r17
     dec:	80 61       	ori	r24, 0x10	; 16
     dee:	19 c0       	rjmp	.+50     	; 0xe22 <_ZN8Keyboard11UpdateEventEv+0x5a>
     df0:	9f 81       	ldd	r25, Y+7	; 0x07
     df2:	11 11       	cpse	r17, r1
     df4:	04 c0       	rjmp	.+8      	; 0xdfe <_ZN8Keyboard11UpdateEventEv+0x36>
     df6:	91 11       	cpse	r25, r1
     df8:	13 c0       	rjmp	.+38     	; 0xe20 <_ZN8Keyboard11UpdateEventEv+0x58>
     dfa:	80 66       	ori	r24, 0x60	; 96
     dfc:	12 c0       	rjmp	.+36     	; 0xe22 <_ZN8Keyboard11UpdateEventEv+0x5a>
     dfe:	91 11       	cpse	r25, r1
     e00:	16 c0       	rjmp	.+44     	; 0xe2e <_ZN8Keyboard11UpdateEventEv+0x66>
     e02:	88 81       	ld	r24, Y
     e04:	99 81       	ldd	r25, Y+1	; 0x01
     e06:	87 df       	rcall	.-242    	; 0xd16 <_ZN8Interval12getMsCounterEv>
     e08:	2d 81       	ldd	r18, Y+5	; 0x05
     e0a:	3e 81       	ldd	r19, Y+6	; 0x06
     e0c:	82 1b       	sub	r24, r18
     e0e:	93 0b       	sbc	r25, r19
     e10:	89 3b       	cpi	r24, 0xB9	; 185
     e12:	9b 40       	sbci	r25, 0x0B	; 11
     e14:	60 f0       	brcs	.+24     	; 0xe2e <_ZN8Keyboard11UpdateEventEv+0x66>
     e16:	81 e0       	ldi	r24, 0x01	; 1
     e18:	8f 83       	std	Y+7, r24	; 0x07
     e1a:	81 2f       	mov	r24, r17
     e1c:	80 68       	ori	r24, 0x80	; 128
     e1e:	01 c0       	rjmp	.+2      	; 0xe22 <_ZN8Keyboard11UpdateEventEv+0x5a>
     e20:	80 62       	ori	r24, 0x20	; 32
     e22:	1c 83       	std	Y+4, r17	; 0x04
     e24:	88 87       	std	Y+8, r24	; 0x08
     e26:	df 91       	pop	r29
     e28:	cf 91       	pop	r28
     e2a:	1f 91       	pop	r17
     e2c:	08 95       	ret
     e2e:	81 2f       	mov	r24, r17
     e30:	f8 cf       	rjmp	.-16     	; 0xe22 <_ZN8Keyboard11UpdateEventEv+0x5a>

00000e32 <_ZN7Shutter15IntervalHandlerEv>:
     e32:	fc 01       	movw	r30, r24
     e34:	90 85       	ldd	r25, Z+8	; 0x08
     e36:	99 23       	and	r25, r25
     e38:	29 f0       	breq	.+10     	; 0xe44 <_ZN7Shutter15IntervalHandlerEv+0x12>
     e3a:	82 81       	ldd	r24, Z+2	; 0x02
     e3c:	91 30       	cpi	r25, 0x01	; 1
     e3e:	29 f4       	brne	.+10     	; 0xe4a <_ZN7Shutter15IntervalHandlerEv+0x18>
     e40:	81 11       	cpse	r24, r1
     e42:	03 c0       	rjmp	.+6      	; 0xe4a <_ZN7Shutter15IntervalHandlerEv+0x18>
     e44:	95 98       	cbi	0x12, 5	; 18
     e46:	96 98       	cbi	0x12, 6	; 18
     e48:	08 95       	ret
     e4a:	8f 5f       	subi	r24, 0xFF	; 255
     e4c:	82 83       	std	Z+2, r24	; 0x02
     e4e:	95 81       	ldd	r25, Z+5	; 0x05
     e50:	89 17       	cp	r24, r25
     e52:	40 f0       	brcs	.+16     	; 0xe64 <_ZN7Shutter15IntervalHandlerEv+0x32>
     e54:	12 82       	std	Z+2, r1	; 0x02
     e56:	86 81       	ldd	r24, Z+6	; 0x06
     e58:	8f 5f       	subi	r24, 0xFF	; 255
     e5a:	86 83       	std	Z+6, r24	; 0x06
     e5c:	97 81       	ldd	r25, Z+7	; 0x07
     e5e:	89 17       	cp	r24, r25
     e60:	08 f0       	brcs	.+2      	; 0xe64 <_ZN7Shutter15IntervalHandlerEv+0x32>
     e62:	10 86       	std	Z+8, r1	; 0x08
     e64:	92 81       	ldd	r25, Z+2	; 0x02
     e66:	83 81       	ldd	r24, Z+3	; 0x03
     e68:	98 17       	cp	r25, r24
     e6a:	10 f4       	brcc	.+4      	; 0xe70 <_ZN7Shutter15IntervalHandlerEv+0x3e>
     e6c:	96 98       	cbi	0x12, 6	; 18
     e6e:	01 c0       	rjmp	.+2      	; 0xe72 <_ZN7Shutter15IntervalHandlerEv+0x40>
     e70:	96 9a       	sbi	0x12, 6	; 18
     e72:	92 81       	ldd	r25, Z+2	; 0x02
     e74:	84 81       	ldd	r24, Z+4	; 0x04
     e76:	98 17       	cp	r25, r24
     e78:	10 f4       	brcc	.+4      	; 0xe7e <_ZN7Shutter15IntervalHandlerEv+0x4c>
     e7a:	95 98       	cbi	0x12, 5	; 18
     e7c:	08 95       	ret
     e7e:	95 9a       	sbi	0x12, 5	; 18
     e80:	08 95       	ret

00000e82 <_ZN7ShutterC1EP8Interval>:
     e82:	fc 01       	movw	r30, r24
     e84:	cb 01       	movw	r24, r22
     e86:	26 ef       	ldi	r18, 0xF6	; 246
     e88:	31 e0       	ldi	r19, 0x01	; 1
     e8a:	31 83       	std	Z+1, r19	; 0x01
     e8c:	20 83       	st	Z, r18
     e8e:	95 98       	cbi	0x12, 5	; 18
     e90:	96 98       	cbi	0x12, 6	; 18
     e92:	8d 9a       	sbi	0x11, 5	; 17
     e94:	8e 9a       	sbi	0x11, 6	; 17
     e96:	12 82       	std	Z+2, r1	; 0x02
     e98:	21 e0       	ldi	r18, 0x01	; 1
     e9a:	23 83       	std	Z+3, r18	; 0x03
     e9c:	22 e0       	ldi	r18, 0x02	; 2
     e9e:	24 83       	std	Z+4, r18	; 0x04
     ea0:	2c e0       	ldi	r18, 0x0C	; 12
     ea2:	25 83       	std	Z+5, r18	; 0x05
     ea4:	16 82       	std	Z+6, r1	; 0x06
     ea6:	24 e1       	ldi	r18, 0x14	; 20
     ea8:	27 83       	std	Z+7, r18	; 0x07
     eaa:	10 86       	std	Z+8, r1	; 0x08
     eac:	41 e0       	ldi	r20, 0x01	; 1
     eae:	50 e0       	ldi	r21, 0x00	; 0
     eb0:	bf 01       	movw	r22, r30
     eb2:	06 cf       	rjmp	.-500    	; 0xcc0 <_ZN8Interval11addListenerEP16IntervalListenerj>

00000eb4 <_ZN7Shutter14SetShutterTimeEh>:
     eb4:	fc 01       	movw	r30, r24
     eb6:	66 23       	and	r22, r22
     eb8:	21 f0       	breq	.+8      	; 0xec2 <_ZN7Shutter14SetShutterTimeEh+0xe>
     eba:	64 36       	cpi	r22, 0x64	; 100
     ebc:	18 f0       	brcs	.+6      	; 0xec4 <_ZN7Shutter14SetShutterTimeEh+0x10>
     ebe:	63 e6       	ldi	r22, 0x63	; 99
     ec0:	01 c0       	rjmp	.+2      	; 0xec4 <_ZN7Shutter14SetShutterTimeEh+0x10>
     ec2:	61 e0       	ldi	r22, 0x01	; 1
     ec4:	10 86       	std	Z+8, r1	; 0x08
     ec6:	16 82       	std	Z+6, r1	; 0x06
     ec8:	12 82       	std	Z+2, r1	; 0x02
     eca:	84 81       	ldd	r24, Z+4	; 0x04
     ecc:	86 0f       	add	r24, r22
     ece:	85 83       	std	Z+5, r24	; 0x05
     ed0:	08 95       	ret

00000ed2 <_ZN7Shutter12SetPauseTimeEh>:
     ed2:	fc 01       	movw	r30, r24
     ed4:	62 30       	cpi	r22, 0x02	; 2
     ed6:	20 f0       	brcs	.+8      	; 0xee0 <_ZN7Shutter12SetPauseTimeEh+0xe>
     ed8:	64 36       	cpi	r22, 0x64	; 100
     eda:	18 f0       	brcs	.+6      	; 0xee2 <_ZN7Shutter12SetPauseTimeEh+0x10>
     edc:	63 e6       	ldi	r22, 0x63	; 99
     ede:	01 c0       	rjmp	.+2      	; 0xee2 <_ZN7Shutter12SetPauseTimeEh+0x10>
     ee0:	62 e0       	ldi	r22, 0x02	; 2
     ee2:	10 86       	std	Z+8, r1	; 0x08
     ee4:	16 82       	std	Z+6, r1	; 0x06
     ee6:	12 82       	std	Z+2, r1	; 0x02
     ee8:	85 81       	ldd	r24, Z+5	; 0x05
     eea:	94 81       	ldd	r25, Z+4	; 0x04
     eec:	89 1b       	sub	r24, r25
     eee:	86 0f       	add	r24, r22
     ef0:	85 83       	std	Z+5, r24	; 0x05
     ef2:	64 83       	std	Z+4, r22	; 0x04
     ef4:	61 50       	subi	r22, 0x01	; 1
     ef6:	63 83       	std	Z+3, r22	; 0x03
     ef8:	08 95       	ret

00000efa <_ZN7Shutter14SetFramesCountEh>:
     efa:	fc 01       	movw	r30, r24
     efc:	66 23       	and	r22, r22
     efe:	21 f0       	breq	.+8      	; 0xf08 <_ZN7Shutter14SetFramesCountEh+0xe>
     f00:	64 36       	cpi	r22, 0x64	; 100
     f02:	18 f0       	brcs	.+6      	; 0xf0a <_ZN7Shutter14SetFramesCountEh+0x10>
     f04:	63 e6       	ldi	r22, 0x63	; 99
     f06:	01 c0       	rjmp	.+2      	; 0xf0a <_ZN7Shutter14SetFramesCountEh+0x10>
     f08:	61 e0       	ldi	r22, 0x01	; 1
     f0a:	10 86       	std	Z+8, r1	; 0x08
     f0c:	16 82       	std	Z+6, r1	; 0x06
     f0e:	12 82       	std	Z+2, r1	; 0x02
     f10:	67 83       	std	Z+7, r22	; 0x07
     f12:	08 95       	ret

00000f14 <_ZN7Shutter9SetStatusEh>:
     f14:	fc 01       	movw	r30, r24
     f16:	60 87       	std	Z+8, r22	; 0x08
     f18:	61 11       	cpse	r22, r1
     f1a:	02 c0       	rjmp	.+4      	; 0xf20 <_ZN7Shutter9SetStatusEh+0xc>
     f1c:	16 82       	std	Z+6, r1	; 0x06
     f1e:	12 82       	std	Z+2, r1	; 0x02
     f20:	08 95       	ret

00000f22 <main>:
     f22:	cf 93       	push	r28
     f24:	df 93       	push	r29
     f26:	cd b7       	in	r28, 0x3d	; 61
     f28:	de b7       	in	r29, 0x3e	; 62
     f2a:	e4 97       	sbiw	r28, 0x34	; 52
     f2c:	0f b6       	in	r0, 0x3f	; 63
     f2e:	f8 94       	cli
     f30:	de bf       	out	0x3e, r29	; 62
     f32:	0f be       	out	0x3f, r0	; 63
     f34:	cd bf       	out	0x3d, r28	; 61
     f36:	ce 01       	movw	r24, r28
     f38:	01 96       	adiw	r24, 0x01	; 1
     f3a:	a4 d8       	rcall	.-3768   	; 0x84 <_ZN11ApplicationC1Ev>
     f3c:	ce 01       	movw	r24, r28
     f3e:	01 96       	adiw	r24, 0x01	; 1
     f40:	0b db       	rcall	.-2538   	; 0x558 <_ZN11Application3RunEv>
     f42:	ff cf       	rjmp	.-2      	; 0xf42 <main+0x20>

00000f44 <__umulhisi3>:
     f44:	a2 9f       	mul	r26, r18
     f46:	b0 01       	movw	r22, r0
     f48:	b3 9f       	mul	r27, r19
     f4a:	c0 01       	movw	r24, r0
     f4c:	a3 9f       	mul	r26, r19
     f4e:	01 d0       	rcall	.+2      	; 0xf52 <__umulhisi3+0xe>
     f50:	b2 9f       	mul	r27, r18
     f52:	70 0d       	add	r23, r0
     f54:	81 1d       	adc	r24, r1
     f56:	11 24       	eor	r1, r1
     f58:	91 1d       	adc	r25, r1
     f5a:	08 95       	ret

00000f5c <__udivmodhi4>:
     f5c:	aa 1b       	sub	r26, r26
     f5e:	bb 1b       	sub	r27, r27
     f60:	51 e1       	ldi	r21, 0x11	; 17
     f62:	07 c0       	rjmp	.+14     	; 0xf72 <__udivmodhi4_ep>

00000f64 <__udivmodhi4_loop>:
     f64:	aa 1f       	adc	r26, r26
     f66:	bb 1f       	adc	r27, r27
     f68:	a6 17       	cp	r26, r22
     f6a:	b7 07       	cpc	r27, r23
     f6c:	10 f0       	brcs	.+4      	; 0xf72 <__udivmodhi4_ep>
     f6e:	a6 1b       	sub	r26, r22
     f70:	b7 0b       	sbc	r27, r23

00000f72 <__udivmodhi4_ep>:
     f72:	88 1f       	adc	r24, r24
     f74:	99 1f       	adc	r25, r25
     f76:	5a 95       	dec	r21
     f78:	a9 f7       	brne	.-22     	; 0xf64 <__udivmodhi4_loop>
     f7a:	80 95       	com	r24
     f7c:	90 95       	com	r25
     f7e:	bc 01       	movw	r22, r24
     f80:	cd 01       	movw	r24, r26
     f82:	08 95       	ret

00000f84 <__divmodhi4>:
     f84:	97 fb       	bst	r25, 7
     f86:	07 2e       	mov	r0, r23
     f88:	16 f4       	brtc	.+4      	; 0xf8e <__divmodhi4+0xa>
     f8a:	00 94       	com	r0
     f8c:	06 d0       	rcall	.+12     	; 0xf9a <__divmodhi4_neg1>
     f8e:	77 fd       	sbrc	r23, 7
     f90:	08 d0       	rcall	.+16     	; 0xfa2 <__divmodhi4_neg2>
     f92:	e4 df       	rcall	.-56     	; 0xf5c <__udivmodhi4>
     f94:	07 fc       	sbrc	r0, 7
     f96:	05 d0       	rcall	.+10     	; 0xfa2 <__divmodhi4_neg2>
     f98:	3e f4       	brtc	.+14     	; 0xfa8 <__divmodhi4_exit>

00000f9a <__divmodhi4_neg1>:
     f9a:	90 95       	com	r25
     f9c:	81 95       	neg	r24
     f9e:	9f 4f       	sbci	r25, 0xFF	; 255
     fa0:	08 95       	ret

00000fa2 <__divmodhi4_neg2>:
     fa2:	70 95       	com	r23
     fa4:	61 95       	neg	r22
     fa6:	7f 4f       	sbci	r23, 0xFF	; 255

00000fa8 <__divmodhi4_exit>:
     fa8:	08 95       	ret

00000faa <__udivmodsi4>:
     faa:	a1 e2       	ldi	r26, 0x21	; 33
     fac:	1a 2e       	mov	r1, r26
     fae:	aa 1b       	sub	r26, r26
     fb0:	bb 1b       	sub	r27, r27
     fb2:	fd 01       	movw	r30, r26
     fb4:	0d c0       	rjmp	.+26     	; 0xfd0 <__udivmodsi4_ep>

00000fb6 <__udivmodsi4_loop>:
     fb6:	aa 1f       	adc	r26, r26
     fb8:	bb 1f       	adc	r27, r27
     fba:	ee 1f       	adc	r30, r30
     fbc:	ff 1f       	adc	r31, r31
     fbe:	a2 17       	cp	r26, r18
     fc0:	b3 07       	cpc	r27, r19
     fc2:	e4 07       	cpc	r30, r20
     fc4:	f5 07       	cpc	r31, r21
     fc6:	20 f0       	brcs	.+8      	; 0xfd0 <__udivmodsi4_ep>
     fc8:	a2 1b       	sub	r26, r18
     fca:	b3 0b       	sbc	r27, r19
     fcc:	e4 0b       	sbc	r30, r20
     fce:	f5 0b       	sbc	r31, r21

00000fd0 <__udivmodsi4_ep>:
     fd0:	66 1f       	adc	r22, r22
     fd2:	77 1f       	adc	r23, r23
     fd4:	88 1f       	adc	r24, r24
     fd6:	99 1f       	adc	r25, r25
     fd8:	1a 94       	dec	r1
     fda:	69 f7       	brne	.-38     	; 0xfb6 <__udivmodsi4_loop>
     fdc:	60 95       	com	r22
     fde:	70 95       	com	r23
     fe0:	80 95       	com	r24
     fe2:	90 95       	com	r25
     fe4:	9b 01       	movw	r18, r22
     fe6:	ac 01       	movw	r20, r24
     fe8:	bd 01       	movw	r22, r26
     fea:	cf 01       	movw	r24, r30
     fec:	08 95       	ret

00000fee <__divmodsi4>:
     fee:	05 2e       	mov	r0, r21
     ff0:	97 fb       	bst	r25, 7
     ff2:	16 f4       	brtc	.+4      	; 0xff8 <__divmodsi4+0xa>
     ff4:	00 94       	com	r0
     ff6:	0f d0       	rcall	.+30     	; 0x1016 <__negsi2>
     ff8:	57 fd       	sbrc	r21, 7
     ffa:	05 d0       	rcall	.+10     	; 0x1006 <__divmodsi4_neg2>
     ffc:	d6 df       	rcall	.-84     	; 0xfaa <__udivmodsi4>
     ffe:	07 fc       	sbrc	r0, 7
    1000:	02 d0       	rcall	.+4      	; 0x1006 <__divmodsi4_neg2>
    1002:	46 f4       	brtc	.+16     	; 0x1014 <__divmodsi4_exit>
    1004:	08 c0       	rjmp	.+16     	; 0x1016 <__negsi2>

00001006 <__divmodsi4_neg2>:
    1006:	50 95       	com	r21
    1008:	40 95       	com	r20
    100a:	30 95       	com	r19
    100c:	21 95       	neg	r18
    100e:	3f 4f       	sbci	r19, 0xFF	; 255
    1010:	4f 4f       	sbci	r20, 0xFF	; 255
    1012:	5f 4f       	sbci	r21, 0xFF	; 255

00001014 <__divmodsi4_exit>:
    1014:	08 95       	ret

00001016 <__negsi2>:
    1016:	90 95       	com	r25
    1018:	80 95       	com	r24
    101a:	70 95       	com	r23
    101c:	61 95       	neg	r22
    101e:	7f 4f       	sbci	r23, 0xFF	; 255
    1020:	8f 4f       	sbci	r24, 0xFF	; 255
    1022:	9f 4f       	sbci	r25, 0xFF	; 255
    1024:	08 95       	ret

00001026 <_exit>:
    1026:	f8 94       	cli

00001028 <__stop_program>:
    1028:	ff cf       	rjmp	.-2      	; 0x1028 <__stop_program>
