
AstroTool.elf:     формат файла elf32-avr

Разделы:
Инд Имя           Размер    VMA       LMA       Файл      Вырав
  0 .text         0000063c  00000000  00000000  00000094  2**1
                  CONTENTS, ALLOC, LOAD, READONLY, CODE
  1 .data         0000018e  00800060  0000063c  000006d0  2**0
                  CONTENTS, ALLOC, LOAD, DATA
  2 .bss          00000002  008001ee  008001ee  0000085e  2**0
                  ALLOC
  3 .stab         000006cc  00000000  00000000  00000860  2**2
                  CONTENTS, READONLY, DEBUGGING
  4 .stabstr      00000054  00000000  00000000  00000f2c  2**0
                  CONTENTS, READONLY, DEBUGGING
  5 .comment      00000011  00000000  00000000  00000f80  2**0
                  CONTENTS, READONLY

Дизассемблирование раздела .text:

00000000 <__vectors>:
   0:	12 c0       	rjmp	.+36     	; 0x26 <__ctors_end>
   2:	2c c0       	rjmp	.+88     	; 0x5c <__bad_interrupt>
   4:	2b c0       	rjmp	.+86     	; 0x5c <__bad_interrupt>
   6:	2a c0       	rjmp	.+84     	; 0x5c <__bad_interrupt>
   8:	06 c2       	rjmp	.+1036   	; 0x416 <__vector_4>
   a:	28 c0       	rjmp	.+80     	; 0x5c <__bad_interrupt>
   c:	27 c0       	rjmp	.+78     	; 0x5c <__bad_interrupt>
   e:	26 c0       	rjmp	.+76     	; 0x5c <__bad_interrupt>
  10:	25 c0       	rjmp	.+74     	; 0x5c <__bad_interrupt>
  12:	24 c0       	rjmp	.+72     	; 0x5c <__bad_interrupt>
  14:	23 c0       	rjmp	.+70     	; 0x5c <__bad_interrupt>
  16:	22 c0       	rjmp	.+68     	; 0x5c <__bad_interrupt>
  18:	21 c0       	rjmp	.+66     	; 0x5c <__bad_interrupt>
  1a:	20 c0       	rjmp	.+64     	; 0x5c <__bad_interrupt>
  1c:	1f c0       	rjmp	.+62     	; 0x5c <__bad_interrupt>
  1e:	1e c0       	rjmp	.+60     	; 0x5c <__bad_interrupt>
  20:	1d c0       	rjmp	.+58     	; 0x5c <__bad_interrupt>
  22:	1c c0       	rjmp	.+56     	; 0x5c <__bad_interrupt>
  24:	1b c0       	rjmp	.+54     	; 0x5c <__bad_interrupt>

00000026 <__ctors_end>:
  26:	11 24       	eor	r1, r1
  28:	1f be       	out	0x3f, r1	; 63
  2a:	cf e5       	ldi	r28, 0x5F	; 95
  2c:	d4 e0       	ldi	r29, 0x04	; 4
  2e:	de bf       	out	0x3e, r29	; 62
  30:	cd bf       	out	0x3d, r28	; 61

00000032 <__do_copy_data>:
  32:	11 e0       	ldi	r17, 0x01	; 1
  34:	a0 e6       	ldi	r26, 0x60	; 96
  36:	b0 e0       	ldi	r27, 0x00	; 0
  38:	ec e3       	ldi	r30, 0x3C	; 60
  3a:	f6 e0       	ldi	r31, 0x06	; 6
  3c:	02 c0       	rjmp	.+4      	; 0x42 <__SREG__+0x3>
  3e:	05 90       	lpm	r0, Z+
  40:	0d 92       	st	X+, r0
  42:	ae 3e       	cpi	r26, 0xEE	; 238
  44:	b1 07       	cpc	r27, r17
  46:	d9 f7       	brne	.-10     	; 0x3e <__SP_H__>

00000048 <__do_clear_bss>:
  48:	11 e0       	ldi	r17, 0x01	; 1
  4a:	ae ee       	ldi	r26, 0xEE	; 238
  4c:	b1 e0       	ldi	r27, 0x01	; 1
  4e:	01 c0       	rjmp	.+2      	; 0x52 <.do_clear_bss_start>

00000050 <.do_clear_bss_loop>:
  50:	1d 92       	st	X+, r1

00000052 <.do_clear_bss_start>:
  52:	a0 3f       	cpi	r26, 0xF0	; 240
  54:	b1 07       	cpc	r27, r17
  56:	e1 f7       	brne	.-8      	; 0x50 <.do_clear_bss_loop>
  58:	5d d2       	rcall	.+1210   	; 0x514 <main>
  5a:	ee c2       	rjmp	.+1500   	; 0x638 <_exit>

0000005c <__bad_interrupt>:
  5c:	d1 cf       	rjmp	.-94     	; 0x0 <__vectors>

0000005e <_ZN7Display15IntervalHandlerEv>:
  5e:	fc 01       	movw	r30, r24
  60:	85 b3       	in	r24, 0x15	; 21
  62:	91 e0       	ldi	r25, 0x01	; 1
  64:	89 27       	eor	r24, r25
  66:	85 bb       	out	0x15, r24	; 21
  68:	82 81       	ldd	r24, Z+2	; 0x02
  6a:	93 81       	ldd	r25, Z+3	; 0x03
  6c:	89 2b       	or	r24, r25
  6e:	39 f0       	breq	.+14     	; 0x7e <_ZN7Display15IntervalHandlerEv+0x20>
  70:	82 81       	ldd	r24, Z+2	; 0x02
  72:	93 81       	ldd	r25, Z+3	; 0x03
  74:	01 97       	sbiw	r24, 0x01	; 1
  76:	93 83       	std	Z+3, r25	; 0x03
  78:	82 83       	std	Z+2, r24	; 0x02
  7a:	94 9a       	sbi	0x12, 4	; 18
  7c:	08 95       	ret
  7e:	94 98       	cbi	0x12, 4	; 18
  80:	08 95       	ret

00000082 <_ZN7Display11SendCommandEhh>:
  82:	a9 98       	cbi	0x15, 1	; 21
  84:	68 bb       	out	0x18, r22	; 24
  86:	85 b3       	in	r24, 0x15	; 21
  88:	43 70       	andi	r20, 0x03	; 3
  8a:	94 e0       	ldi	r25, 0x04	; 4
  8c:	49 9f       	mul	r20, r25
  8e:	a0 01       	movw	r20, r0
  90:	11 24       	eor	r1, r1
  92:	84 2b       	or	r24, r20
  94:	85 bb       	out	0x15, r24	; 21
  96:	00 00       	nop
  98:	00 00       	nop
  9a:	00 00       	nop
  9c:	85 b3       	in	r24, 0x15	; 21
  9e:	83 7f       	andi	r24, 0xF3	; 243
  a0:	85 bb       	out	0x15, r24	; 21
  a2:	08 95       	ret

000000a4 <_ZN7Display8SendDataEhh>:
  a4:	a9 9a       	sbi	0x15, 1	; 21
  a6:	68 bb       	out	0x18, r22	; 24
  a8:	85 b3       	in	r24, 0x15	; 21
  aa:	43 70       	andi	r20, 0x03	; 3
  ac:	94 e0       	ldi	r25, 0x04	; 4
  ae:	49 9f       	mul	r20, r25
  b0:	a0 01       	movw	r20, r0
  b2:	11 24       	eor	r1, r1
  b4:	84 2b       	or	r24, r20
  b6:	85 bb       	out	0x15, r24	; 21
  b8:	00 00       	nop
  ba:	00 00       	nop
  bc:	00 00       	nop
  be:	85 b3       	in	r24, 0x15	; 21
  c0:	83 7f       	andi	r24, 0xF3	; 243
  c2:	85 bb       	out	0x15, r24	; 21
  c4:	08 95       	ret

000000c6 <_ZN7Display9PutColumnEhhhh>:
  c6:	cf 92       	push	r12
  c8:	df 92       	push	r13
  ca:	ff 92       	push	r15
  cc:	0f 93       	push	r16
  ce:	1f 93       	push	r17
  d0:	cf 93       	push	r28
  d2:	df 93       	push	r29
  d4:	00 d0       	rcall	.+0      	; 0xd6 <_ZN7Display9PutColumnEhhhh+0x10>
  d6:	cd b7       	in	r28, 0x3d	; 61
  d8:	de b7       	in	r29, 0x3e	; 62
  da:	6c 01       	movw	r12, r24
  dc:	16 2f       	mov	r17, r22
  de:	f0 2e       	mov	r15, r16
  e0:	6a 37       	cpi	r22, 0x7A	; 122
  e2:	90 f5       	brcc	.+100    	; 0x148 <_ZN7Display9PutColumnEhhhh+0x82>
  e4:	44 30       	cpi	r20, 0x04	; 4
  e6:	80 f5       	brcc	.+96     	; 0x148 <_ZN7Display9PutColumnEhhhh+0x82>
  e8:	6d 33       	cpi	r22, 0x3D	; 61
  ea:	20 f4       	brcc	.+8      	; 0xf4 <_ZN7Display9PutColumnEhhhh+0x2e>
  ec:	34 2f       	mov	r19, r20
  ee:	30 61       	ori	r19, 0x10	; 16
  f0:	01 e0       	ldi	r16, 0x01	; 1
  f2:	04 c0       	rjmp	.+8      	; 0xfc <_ZN7Display9PutColumnEhhhh+0x36>
  f4:	1d 53       	subi	r17, 0x3D	; 61
  f6:	34 2f       	mov	r19, r20
  f8:	30 62       	ori	r19, 0x20	; 32
  fa:	02 e0       	ldi	r16, 0x02	; 2
  fc:	f6 01       	movw	r30, r12
  fe:	84 81       	ldd	r24, Z+4	; 0x04
 100:	18 13       	cpse	r17, r24
 102:	03 c0       	rjmp	.+6      	; 0x10a <_ZN7Display9PutColumnEhhhh+0x44>
 104:	85 81       	ldd	r24, Z+5	; 0x05
 106:	38 17       	cp	r19, r24
 108:	89 f0       	breq	.+34     	; 0x12c <_ZN7Display9PutColumnEhhhh+0x66>
 10a:	63 2f       	mov	r22, r19
 10c:	6f 70       	andi	r22, 0x0F	; 15
 10e:	68 54       	subi	r22, 0x48	; 72
 110:	40 2f       	mov	r20, r16
 112:	c6 01       	movw	r24, r12
 114:	2a 83       	std	Y+2, r18	; 0x02
 116:	39 83       	std	Y+1, r19	; 0x01
 118:	b4 df       	rcall	.-152    	; 0x82 <_ZN7Display11SendCommandEhh>
 11a:	40 2f       	mov	r20, r16
 11c:	61 2f       	mov	r22, r17
 11e:	c6 01       	movw	r24, r12
 120:	b0 df       	rcall	.-160    	; 0x82 <_ZN7Display11SendCommandEhh>
 122:	f6 01       	movw	r30, r12
 124:	14 83       	std	Z+4, r17	; 0x04
 126:	39 81       	ldd	r19, Y+1	; 0x01
 128:	35 83       	std	Z+5, r19	; 0x05
 12a:	2a 81       	ldd	r18, Y+2	; 0x02
 12c:	ff 20       	and	r15, r15
 12e:	21 f0       	breq	.+8      	; 0x138 <_ZN7Display9PutColumnEhhhh+0x72>
 130:	62 2f       	mov	r22, r18
 132:	60 95       	com	r22
 134:	40 2f       	mov	r20, r16
 136:	02 c0       	rjmp	.+4      	; 0x13c <_ZN7Display9PutColumnEhhhh+0x76>
 138:	40 2f       	mov	r20, r16
 13a:	62 2f       	mov	r22, r18
 13c:	c6 01       	movw	r24, r12
 13e:	b2 df       	rcall	.-156    	; 0xa4 <_ZN7Display8SendDataEhh>
 140:	f6 01       	movw	r30, r12
 142:	84 81       	ldd	r24, Z+4	; 0x04
 144:	8f 5f       	subi	r24, 0xFF	; 255
 146:	84 83       	std	Z+4, r24	; 0x04
 148:	0f 90       	pop	r0
 14a:	0f 90       	pop	r0
 14c:	df 91       	pop	r29
 14e:	cf 91       	pop	r28
 150:	1f 91       	pop	r17
 152:	0f 91       	pop	r16
 154:	ff 90       	pop	r15
 156:	df 90       	pop	r13
 158:	cf 90       	pop	r12
 15a:	08 95       	ret

0000015c <_ZN7Display11ClearScreenEv>:
 15c:	0f 93       	push	r16
 15e:	1f 93       	push	r17
 160:	cf 93       	push	r28
 162:	df 93       	push	r29
 164:	ec 01       	movw	r28, r24
 166:	18 eb       	ldi	r17, 0xB8	; 184
 168:	43 e0       	ldi	r20, 0x03	; 3
 16a:	61 2f       	mov	r22, r17
 16c:	ce 01       	movw	r24, r28
 16e:	89 df       	rcall	.-238    	; 0x82 <_ZN7Display11SendCommandEhh>
 170:	43 e0       	ldi	r20, 0x03	; 3
 172:	60 e0       	ldi	r22, 0x00	; 0
 174:	ce 01       	movw	r24, r28
 176:	85 df       	rcall	.-246    	; 0x82 <_ZN7Display11SendCommandEhh>
 178:	0d e3       	ldi	r16, 0x3D	; 61
 17a:	43 e0       	ldi	r20, 0x03	; 3
 17c:	60 e0       	ldi	r22, 0x00	; 0
 17e:	ce 01       	movw	r24, r28
 180:	91 df       	rcall	.-222    	; 0xa4 <_ZN7Display8SendDataEhh>
 182:	01 50       	subi	r16, 0x01	; 1
 184:	d1 f7       	brne	.-12     	; 0x17a <_ZN7Display11ClearScreenEv+0x1e>
 186:	1f 5f       	subi	r17, 0xFF	; 255
 188:	1c 3b       	cpi	r17, 0xBC	; 188
 18a:	71 f7       	brne	.-36     	; 0x168 <_ZN7Display11ClearScreenEv+0xc>
 18c:	1c 82       	std	Y+4, r1	; 0x04
 18e:	1d 82       	std	Y+5, r1	; 0x05
 190:	43 e0       	ldi	r20, 0x03	; 3
 192:	68 eb       	ldi	r22, 0xB8	; 184
 194:	ce 01       	movw	r24, r28
 196:	75 df       	rcall	.-278    	; 0x82 <_ZN7Display11SendCommandEhh>
 198:	43 e0       	ldi	r20, 0x03	; 3
 19a:	60 e0       	ldi	r22, 0x00	; 0
 19c:	ce 01       	movw	r24, r28
 19e:	df 91       	pop	r29
 1a0:	cf 91       	pop	r28
 1a2:	1f 91       	pop	r17
 1a4:	0f 91       	pop	r16
 1a6:	6d cf       	rjmp	.-294    	; 0x82 <_ZN7Display11SendCommandEhh>

000001a8 <_ZN7Display12InitHardwareEv>:
 1a8:	cf 93       	push	r28
 1aa:	df 93       	push	r29
 1ac:	ec 01       	movw	r28, r24
 1ae:	8f ef       	ldi	r24, 0xFF	; 255
 1b0:	87 bb       	out	0x17, r24	; 23
 1b2:	88 bb       	out	0x18, r24	; 24
 1b4:	84 b3       	in	r24, 0x14	; 20
 1b6:	8f 60       	ori	r24, 0x0F	; 15
 1b8:	84 bb       	out	0x14, r24	; 20
 1ba:	85 b3       	in	r24, 0x15	; 21
 1bc:	80 7f       	andi	r24, 0xF0	; 240
 1be:	85 bb       	out	0x15, r24	; 21
 1c0:	8c 9a       	sbi	0x11, 4	; 17
 1c2:	94 9a       	sbi	0x12, 4	; 18
 1c4:	2f e7       	ldi	r18, 0x7F	; 127
 1c6:	88 e3       	ldi	r24, 0x38	; 56
 1c8:	91 e0       	ldi	r25, 0x01	; 1
 1ca:	21 50       	subi	r18, 0x01	; 1
 1cc:	80 40       	sbci	r24, 0x00	; 0
 1ce:	90 40       	sbci	r25, 0x00	; 0
 1d0:	e1 f7       	brne	.-8      	; 0x1ca <_ZN7Display12InitHardwareEv+0x22>
 1d2:	00 c0       	rjmp	.+0      	; 0x1d4 <_ZN7Display12InitHardwareEv+0x2c>
 1d4:	00 00       	nop
 1d6:	43 e0       	ldi	r20, 0x03	; 3
 1d8:	6f ea       	ldi	r22, 0xAF	; 175
 1da:	ce 01       	movw	r24, r28
 1dc:	52 df       	rcall	.-348    	; 0x82 <_ZN7Display11SendCommandEhh>
 1de:	43 e0       	ldi	r20, 0x03	; 3
 1e0:	60 ea       	ldi	r22, 0xA0	; 160
 1e2:	ce 01       	movw	r24, r28
 1e4:	4e df       	rcall	.-356    	; 0x82 <_ZN7Display11SendCommandEhh>
 1e6:	ce 01       	movw	r24, r28
 1e8:	b9 df       	rcall	.-142    	; 0x15c <_ZN7Display11ClearScreenEv>
 1ea:	80 e4       	ldi	r24, 0x40	; 64
 1ec:	9f e1       	ldi	r25, 0x1F	; 31
 1ee:	9b 83       	std	Y+3, r25	; 0x03
 1f0:	8a 83       	std	Y+2, r24	; 0x02
 1f2:	df 91       	pop	r29
 1f4:	cf 91       	pop	r28
 1f6:	08 95       	ret

000001f8 <_ZN7DisplayC1EP8Interval>:
 1f8:	cf 93       	push	r28
 1fa:	df 93       	push	r29
 1fc:	ec 01       	movw	r28, r24
 1fe:	cb 01       	movw	r24, r22
 200:	24 e6       	ldi	r18, 0x64	; 100
 202:	30 e0       	ldi	r19, 0x00	; 0
 204:	39 83       	std	Y+1, r19	; 0x01
 206:	28 83       	st	Y, r18
 208:	1b 82       	std	Y+3, r1	; 0x03
 20a:	1a 82       	std	Y+2, r1	; 0x02
 20c:	40 ea       	ldi	r20, 0xA0	; 160
 20e:	5f e0       	ldi	r21, 0x0F	; 15
 210:	be 01       	movw	r22, r28
 212:	c9 d0       	rcall	.+402    	; 0x3a6 <_ZN8Interval11addListenerEP16IntervalListenerj>
 214:	ce 01       	movw	r24, r28
 216:	df 91       	pop	r29
 218:	cf 91       	pop	r28
 21a:	c6 cf       	rjmp	.-116    	; 0x1a8 <_ZN7Display12InitHardwareEv>

0000021c <_ZN7Display7PutCharEhhhh>:
 21c:	5f 92       	push	r5
 21e:	6f 92       	push	r6
 220:	7f 92       	push	r7
 222:	8f 92       	push	r8
 224:	9f 92       	push	r9
 226:	af 92       	push	r10
 228:	bf 92       	push	r11
 22a:	cf 92       	push	r12
 22c:	df 92       	push	r13
 22e:	ef 92       	push	r14
 230:	ff 92       	push	r15
 232:	0f 93       	push	r16
 234:	1f 93       	push	r17
 236:	cf 93       	push	r28
 238:	df 93       	push	r29
 23a:	ec 01       	movw	r28, r24
 23c:	66 2e       	mov	r6, r22
 23e:	84 2e       	mov	r8, r20
 240:	a2 2e       	mov	r10, r18
 242:	10 2f       	mov	r17, r16
 244:	76 2e       	mov	r7, r22
 246:	77 0c       	add	r7, r7
 248:	77 0c       	add	r7, r7
 24a:	77 0c       	add	r7, r7
 24c:	92 e0       	ldi	r25, 0x02	; 2
 24e:	99 2e       	mov	r9, r25
 250:	97 0c       	add	r9, r7
 252:	88 0c       	add	r8, r8
 254:	61 11       	cpse	r22, r1
 256:	06 c0       	rjmp	.+12     	; 0x264 <_ZN7Display7PutCharEhhhh+0x48>
 258:	20 e0       	ldi	r18, 0x00	; 0
 25a:	48 2d       	mov	r20, r8
 25c:	61 e0       	ldi	r22, 0x01	; 1
 25e:	67 0d       	add	r22, r7
 260:	ce 01       	movw	r24, r28
 262:	31 df       	rcall	.-414    	; 0xc6 <_ZN7Display9PutColumnEhhhh>
 264:	8e e0       	ldi	r24, 0x0E	; 14
 266:	a8 9e       	mul	r10, r24
 268:	60 01       	movw	r12, r0
 26a:	11 24       	eor	r1, r1
 26c:	c6 01       	movw	r24, r12
 26e:	8a 59       	subi	r24, 0x9A	; 154
 270:	9f 4f       	sbci	r25, 0xFF	; 255
 272:	6c 01       	movw	r12, r24
 274:	e1 2c       	mov	r14, r1
 276:	f1 2c       	mov	r15, r1
 278:	b1 2c       	mov	r11, r1
 27a:	f6 01       	movw	r30, r12
 27c:	ee 0d       	add	r30, r14
 27e:	ff 1d       	adc	r31, r15
 280:	69 2d       	mov	r22, r9
 282:	6e 0d       	add	r22, r14
 284:	01 2f       	mov	r16, r17
 286:	20 81       	ld	r18, Z
 288:	48 2d       	mov	r20, r8
 28a:	ce 01       	movw	r24, r28
 28c:	1c df       	rcall	.-456    	; 0xc6 <_ZN7Display9PutColumnEhhhh>
 28e:	9f ef       	ldi	r25, 0xFF	; 255
 290:	e9 1a       	sub	r14, r25
 292:	f9 0a       	sbc	r15, r25
 294:	87 e0       	ldi	r24, 0x07	; 7
 296:	e8 16       	cp	r14, r24
 298:	f1 04       	cpc	r15, r1
 29a:	79 f7       	brne	.-34     	; 0x27a <_ZN7Display7PutCharEhhhh+0x5e>
 29c:	89 e0       	ldi	r24, 0x09	; 9
 29e:	58 2e       	mov	r5, r24
 2a0:	57 0c       	add	r5, r7
 2a2:	20 e0       	ldi	r18, 0x00	; 0
 2a4:	48 2d       	mov	r20, r8
 2a6:	65 2d       	mov	r22, r5
 2a8:	ce 01       	movw	r24, r28
 2aa:	0d df       	rcall	.-486    	; 0xc6 <_ZN7Display9PutColumnEhhhh>
 2ac:	83 94       	inc	r8
 2ae:	61 10       	cpse	r6, r1
 2b0:	06 c0       	rjmp	.+12     	; 0x2be <_ZN7Display7PutCharEhhhh+0xa2>
 2b2:	61 e0       	ldi	r22, 0x01	; 1
 2b4:	67 0d       	add	r22, r7
 2b6:	20 e0       	ldi	r18, 0x00	; 0
 2b8:	48 2d       	mov	r20, r8
 2ba:	ce 01       	movw	r24, r28
 2bc:	04 df       	rcall	.-504    	; 0xc6 <_ZN7Display9PutColumnEhhhh>
 2be:	8e e0       	ldi	r24, 0x0E	; 14
 2c0:	8a 9d       	mul	r24, r10
 2c2:	60 01       	movw	r12, r0
 2c4:	8b 9d       	mul	r24, r11
 2c6:	d0 0c       	add	r13, r0
 2c8:	11 24       	eor	r1, r1
 2ca:	c6 01       	movw	r24, r12
 2cc:	8a 59       	subi	r24, 0x9A	; 154
 2ce:	9f 4f       	sbci	r25, 0xFF	; 255
 2d0:	6c 01       	movw	r12, r24
 2d2:	e1 2c       	mov	r14, r1
 2d4:	f1 2c       	mov	r15, r1
 2d6:	f6 01       	movw	r30, r12
 2d8:	ee 0d       	add	r30, r14
 2da:	ff 1d       	adc	r31, r15
 2dc:	69 2d       	mov	r22, r9
 2de:	6e 0d       	add	r22, r14
 2e0:	01 2f       	mov	r16, r17
 2e2:	27 81       	ldd	r18, Z+7	; 0x07
 2e4:	48 2d       	mov	r20, r8
 2e6:	ce 01       	movw	r24, r28
 2e8:	ee de       	rcall	.-548    	; 0xc6 <_ZN7Display9PutColumnEhhhh>
 2ea:	9f ef       	ldi	r25, 0xFF	; 255
 2ec:	e9 1a       	sub	r14, r25
 2ee:	f9 0a       	sbc	r15, r25
 2f0:	87 e0       	ldi	r24, 0x07	; 7
 2f2:	e8 16       	cp	r14, r24
 2f4:	f1 04       	cpc	r15, r1
 2f6:	79 f7       	brne	.-34     	; 0x2d6 <_ZN7Display7PutCharEhhhh+0xba>
 2f8:	20 e0       	ldi	r18, 0x00	; 0
 2fa:	48 2d       	mov	r20, r8
 2fc:	65 2d       	mov	r22, r5
 2fe:	ce 01       	movw	r24, r28
 300:	e2 de       	rcall	.-572    	; 0xc6 <_ZN7Display9PutColumnEhhhh>
 302:	df 91       	pop	r29
 304:	cf 91       	pop	r28
 306:	1f 91       	pop	r17
 308:	0f 91       	pop	r16
 30a:	ff 90       	pop	r15
 30c:	ef 90       	pop	r14
 30e:	df 90       	pop	r13
 310:	cf 90       	pop	r12
 312:	bf 90       	pop	r11
 314:	af 90       	pop	r10
 316:	9f 90       	pop	r9
 318:	8f 90       	pop	r8
 31a:	7f 90       	pop	r7
 31c:	6f 90       	pop	r6
 31e:	5f 90       	pop	r5
 320:	08 95       	ret

00000322 <_ZN8IntervalC1Ev>:
 322:	fc 01       	movw	r30, r24
 324:	90 93 ef 01 	sts	0x01EF, r25
 328:	80 93 ee 01 	sts	0x01EE, r24
 32c:	13 8a       	std	Z+19, r1	; 0x13
 32e:	12 8a       	std	Z+18, r1	; 0x12
 330:	15 86       	std	Z+13, r1	; 0x0d
 332:	14 86       	std	Z+12, r1	; 0x0c
 334:	17 86       	std	Z+15, r1	; 0x0f
 336:	16 86       	std	Z+14, r1	; 0x0e
 338:	11 8a       	std	Z+17, r1	; 0x11
 33a:	10 8a       	std	Z+16, r1	; 0x10
 33c:	84 e0       	ldi	r24, 0x04	; 4
 33e:	85 bd       	out	0x25, r24	; 37
 340:	81 ee       	ldi	r24, 0xE1	; 225
 342:	84 bd       	out	0x24, r24	; 36
 344:	89 b7       	in	r24, 0x39	; 57
 346:	80 64       	ori	r24, 0x40	; 64
 348:	89 bf       	out	0x39, r24	; 57
 34a:	78 94       	sei
 34c:	08 95       	ret

0000034e <_ZN8Interval16InterruptHandlerEv>:
 34e:	1f 93       	push	r17
 350:	cf 93       	push	r28
 352:	df 93       	push	r29
 354:	ec 01       	movw	r28, r24
 356:	8a 89       	ldd	r24, Y+18	; 0x12
 358:	9b 89       	ldd	r25, Y+19	; 0x13
 35a:	01 96       	adiw	r24, 0x01	; 1
 35c:	9b 8b       	std	Y+19, r25	; 0x13
 35e:	8a 8b       	std	Y+18, r24	; 0x12
 360:	81 ee       	ldi	r24, 0xE1	; 225
 362:	84 bd       	out	0x24, r24	; 36
 364:	13 e0       	ldi	r17, 0x03	; 3
 366:	2c 85       	ldd	r18, Y+12	; 0x0c
 368:	3d 85       	ldd	r19, Y+13	; 0x0d
 36a:	21 15       	cp	r18, r1
 36c:	31 05       	cpc	r19, r1
 36e:	99 f0       	breq	.+38     	; 0x396 <_ZN8Interval16InterruptHandlerEv+0x48>
 370:	8e 81       	ldd	r24, Y+6	; 0x06
 372:	9f 81       	ldd	r25, Y+7	; 0x07
 374:	01 96       	adiw	r24, 0x01	; 1
 376:	9f 83       	std	Y+7, r25	; 0x07
 378:	8e 83       	std	Y+6, r24	; 0x06
 37a:	82 17       	cp	r24, r18
 37c:	93 07       	cpc	r25, r19
 37e:	58 f0       	brcs	.+22     	; 0x396 <_ZN8Interval16InterruptHandlerEv+0x48>
 380:	1f 82       	std	Y+7, r1	; 0x07
 382:	1e 82       	std	Y+6, r1	; 0x06
 384:	88 81       	ld	r24, Y
 386:	99 81       	ldd	r25, Y+1	; 0x01
 388:	dc 01       	movw	r26, r24
 38a:	ed 91       	ld	r30, X+
 38c:	fc 91       	ld	r31, X
 38e:	01 90       	ld	r0, Z+
 390:	f0 81       	ld	r31, Z
 392:	e0 2d       	mov	r30, r0
 394:	09 95       	icall
 396:	11 50       	subi	r17, 0x01	; 1
 398:	22 96       	adiw	r28, 0x02	; 2
 39a:	11 11       	cpse	r17, r1
 39c:	e4 cf       	rjmp	.-56     	; 0x366 <_ZN8Interval16InterruptHandlerEv+0x18>
 39e:	df 91       	pop	r29
 3a0:	cf 91       	pop	r28
 3a2:	1f 91       	pop	r17
 3a4:	08 95       	ret

000003a6 <_ZN8Interval11addListenerEP16IntervalListenerj>:
 3a6:	fc 01       	movw	r30, r24
 3a8:	84 85       	ldd	r24, Z+12	; 0x0c
 3aa:	95 85       	ldd	r25, Z+13	; 0x0d
 3ac:	89 2b       	or	r24, r25
 3ae:	51 f0       	breq	.+20     	; 0x3c4 <_ZN8Interval11addListenerEP16IntervalListenerj+0x1e>
 3b0:	86 85       	ldd	r24, Z+14	; 0x0e
 3b2:	97 85       	ldd	r25, Z+15	; 0x0f
 3b4:	89 2b       	or	r24, r25
 3b6:	41 f0       	breq	.+16     	; 0x3c8 <_ZN8Interval11addListenerEP16IntervalListenerj+0x22>
 3b8:	80 89       	ldd	r24, Z+16	; 0x10
 3ba:	91 89       	ldd	r25, Z+17	; 0x11
 3bc:	89 2b       	or	r24, r25
 3be:	31 f4       	brne	.+12     	; 0x3cc <_ZN8Interval11addListenerEP16IntervalListenerj+0x26>
 3c0:	82 e0       	ldi	r24, 0x02	; 2
 3c2:	05 c0       	rjmp	.+10     	; 0x3ce <_ZN8Interval11addListenerEP16IntervalListenerj+0x28>
 3c4:	80 e0       	ldi	r24, 0x00	; 0
 3c6:	03 c0       	rjmp	.+6      	; 0x3ce <_ZN8Interval11addListenerEP16IntervalListenerj+0x28>
 3c8:	81 e0       	ldi	r24, 0x01	; 1
 3ca:	01 c0       	rjmp	.+2      	; 0x3ce <_ZN8Interval11addListenerEP16IntervalListenerj+0x28>
 3cc:	83 e0       	ldi	r24, 0x03	; 3
 3ce:	e8 0f       	add	r30, r24
 3d0:	f1 1d       	adc	r31, r1
 3d2:	e8 0f       	add	r30, r24
 3d4:	f1 1d       	adc	r31, r1
 3d6:	17 82       	std	Z+7, r1	; 0x07
 3d8:	16 82       	std	Z+6, r1	; 0x06
 3da:	71 83       	std	Z+1, r23	; 0x01
 3dc:	60 83       	st	Z, r22
 3de:	80 ea       	ldi	r24, 0xA0	; 160
 3e0:	9f e0       	ldi	r25, 0x0F	; 15
 3e2:	ba 01       	movw	r22, r20
 3e4:	f3 d0       	rcall	.+486    	; 0x5cc <__udivmodhi4>
 3e6:	61 15       	cp	r22, r1
 3e8:	71 05       	cpc	r23, r1
 3ea:	19 f0       	breq	.+6      	; 0x3f2 <_ZN8Interval11addListenerEP16IntervalListenerj+0x4c>
 3ec:	75 87       	std	Z+13, r23	; 0x0d
 3ee:	64 87       	std	Z+12, r22	; 0x0c
 3f0:	08 95       	ret
 3f2:	81 e0       	ldi	r24, 0x01	; 1
 3f4:	90 e0       	ldi	r25, 0x00	; 0
 3f6:	95 87       	std	Z+13, r25	; 0x0d
 3f8:	84 87       	std	Z+12, r24	; 0x0c
 3fa:	08 95       	ret

000003fc <_ZN8Interval12getMsCounterEv>:
 3fc:	fc 01       	movw	r30, r24
 3fe:	22 89       	ldd	r18, Z+18	; 0x12
 400:	33 89       	ldd	r19, Z+19	; 0x13
 402:	a8 ee       	ldi	r26, 0xE8	; 232
 404:	b3 e0       	ldi	r27, 0x03	; 3
 406:	ca d0       	rcall	.+404    	; 0x59c <__umulhisi3>
 408:	20 ea       	ldi	r18, 0xA0	; 160
 40a:	3f e0       	ldi	r19, 0x0F	; 15
 40c:	40 e0       	ldi	r20, 0x00	; 0
 40e:	50 e0       	ldi	r21, 0x00	; 0
 410:	f1 d0       	rcall	.+482    	; 0x5f4 <__udivmodsi4>
 412:	c9 01       	movw	r24, r18
 414:	08 95       	ret

00000416 <__vector_4>:
 416:	1f 92       	push	r1
 418:	0f 92       	push	r0
 41a:	0f b6       	in	r0, 0x3f	; 63
 41c:	0f 92       	push	r0
 41e:	11 24       	eor	r1, r1
 420:	2f 93       	push	r18
 422:	3f 93       	push	r19
 424:	4f 93       	push	r20
 426:	5f 93       	push	r21
 428:	6f 93       	push	r22
 42a:	7f 93       	push	r23
 42c:	8f 93       	push	r24
 42e:	9f 93       	push	r25
 430:	af 93       	push	r26
 432:	bf 93       	push	r27
 434:	ef 93       	push	r30
 436:	ff 93       	push	r31
 438:	80 91 ee 01 	lds	r24, 0x01EE
 43c:	90 91 ef 01 	lds	r25, 0x01EF
 440:	86 df       	rcall	.-244    	; 0x34e <_ZN8Interval16InterruptHandlerEv>
 442:	ff 91       	pop	r31
 444:	ef 91       	pop	r30
 446:	bf 91       	pop	r27
 448:	af 91       	pop	r26
 44a:	9f 91       	pop	r25
 44c:	8f 91       	pop	r24
 44e:	7f 91       	pop	r23
 450:	6f 91       	pop	r22
 452:	5f 91       	pop	r21
 454:	4f 91       	pop	r20
 456:	3f 91       	pop	r19
 458:	2f 91       	pop	r18
 45a:	0f 90       	pop	r0
 45c:	0f be       	out	0x3f, r0	; 63
 45e:	0f 90       	pop	r0
 460:	1f 90       	pop	r1
 462:	18 95       	reti

00000464 <_ZN8KeyboardC1EP8Interval>:
 464:	fc 01       	movw	r30, r24
 466:	71 83       	std	Z+1, r23	; 0x01
 468:	60 83       	st	Z, r22
 46a:	12 82       	std	Z+2, r1	; 0x02
 46c:	13 82       	std	Z+3, r1	; 0x03
 46e:	14 82       	std	Z+4, r1	; 0x04
 470:	16 82       	std	Z+6, r1	; 0x06
 472:	15 82       	std	Z+5, r1	; 0x05
 474:	17 82       	std	Z+7, r1	; 0x07
 476:	a5 98       	cbi	0x14, 5	; 20
 478:	ad 9a       	sbi	0x15, 5	; 21
 47a:	8f 98       	cbi	0x11, 7	; 17
 47c:	97 9a       	sbi	0x12, 7	; 18
 47e:	08 95       	ret

00000480 <_ZN8Keyboard18GetDebouncedButtonEv>:
 480:	fc 01       	movw	r30, r24
 482:	83 b3       	in	r24, 0x13	; 19
 484:	85 fb       	bst	r24, 5
 486:	88 27       	eor	r24, r24
 488:	80 f9       	bld	r24, 0
 48a:	91 e0       	ldi	r25, 0x01	; 1
 48c:	89 27       	eor	r24, r25
 48e:	87 9b       	sbis	0x10, 7	; 16
 490:	82 60       	ori	r24, 0x02	; 2
 492:	93 81       	ldd	r25, Z+3	; 0x03
 494:	89 17       	cp	r24, r25
 496:	41 f0       	breq	.+16     	; 0x4a8 <_ZN8Keyboard18GetDebouncedButtonEv+0x28>
 498:	22 81       	ldd	r18, Z+2	; 0x02
 49a:	20 32       	cpi	r18, 0x20	; 32
 49c:	20 f4       	brcc	.+8      	; 0x4a6 <_ZN8Keyboard18GetDebouncedButtonEv+0x26>
 49e:	2f 5f       	subi	r18, 0xFF	; 255
 4a0:	22 83       	std	Z+2, r18	; 0x02
 4a2:	89 2f       	mov	r24, r25
 4a4:	08 95       	ret
 4a6:	83 83       	std	Z+3, r24	; 0x03
 4a8:	12 82       	std	Z+2, r1	; 0x02
 4aa:	08 95       	ret

000004ac <_ZN8Keyboard8GetEventEv>:
 4ac:	1f 93       	push	r17
 4ae:	cf 93       	push	r28
 4b0:	df 93       	push	r29
 4b2:	ec 01       	movw	r28, r24
 4b4:	e5 df       	rcall	.-54     	; 0x480 <_ZN8Keyboard18GetDebouncedButtonEv>
 4b6:	18 2f       	mov	r17, r24
 4b8:	8c 81       	ldd	r24, Y+4	; 0x04
 4ba:	81 11       	cpse	r24, r1
 4bc:	0b c0       	rjmp	.+22     	; 0x4d4 <_ZN8Keyboard8GetEventEv+0x28>
 4be:	11 23       	and	r17, r17
 4c0:	39 f1       	breq	.+78     	; 0x510 <_ZN8Keyboard8GetEventEv+0x64>
 4c2:	1f 82       	std	Y+7, r1	; 0x07
 4c4:	88 81       	ld	r24, Y
 4c6:	99 81       	ldd	r25, Y+1	; 0x01
 4c8:	99 df       	rcall	.-206    	; 0x3fc <_ZN8Interval12getMsCounterEv>
 4ca:	9e 83       	std	Y+6, r25	; 0x06
 4cc:	8d 83       	std	Y+5, r24	; 0x05
 4ce:	81 2f       	mov	r24, r17
 4d0:	80 61       	ori	r24, 0x10	; 16
 4d2:	19 c0       	rjmp	.+50     	; 0x506 <_ZN8Keyboard8GetEventEv+0x5a>
 4d4:	9f 81       	ldd	r25, Y+7	; 0x07
 4d6:	11 11       	cpse	r17, r1
 4d8:	04 c0       	rjmp	.+8      	; 0x4e2 <_ZN8Keyboard8GetEventEv+0x36>
 4da:	91 11       	cpse	r25, r1
 4dc:	13 c0       	rjmp	.+38     	; 0x504 <_ZN8Keyboard8GetEventEv+0x58>
 4de:	80 66       	ori	r24, 0x60	; 96
 4e0:	12 c0       	rjmp	.+36     	; 0x506 <_ZN8Keyboard8GetEventEv+0x5a>
 4e2:	91 11       	cpse	r25, r1
 4e4:	15 c0       	rjmp	.+42     	; 0x510 <_ZN8Keyboard8GetEventEv+0x64>
 4e6:	88 81       	ld	r24, Y
 4e8:	99 81       	ldd	r25, Y+1	; 0x01
 4ea:	88 df       	rcall	.-240    	; 0x3fc <_ZN8Interval12getMsCounterEv>
 4ec:	2d 81       	ldd	r18, Y+5	; 0x05
 4ee:	3e 81       	ldd	r19, Y+6	; 0x06
 4f0:	82 1b       	sub	r24, r18
 4f2:	93 0b       	sbc	r25, r19
 4f4:	89 3b       	cpi	r24, 0xB9	; 185
 4f6:	9b 40       	sbci	r25, 0x0B	; 11
 4f8:	58 f0       	brcs	.+22     	; 0x510 <_ZN8Keyboard8GetEventEv+0x64>
 4fa:	81 e0       	ldi	r24, 0x01	; 1
 4fc:	8f 83       	std	Y+7, r24	; 0x07
 4fe:	81 2f       	mov	r24, r17
 500:	80 68       	ori	r24, 0x80	; 128
 502:	01 c0       	rjmp	.+2      	; 0x506 <_ZN8Keyboard8GetEventEv+0x5a>
 504:	80 62       	ori	r24, 0x20	; 32
 506:	1c 83       	std	Y+4, r17	; 0x04
 508:	df 91       	pop	r29
 50a:	cf 91       	pop	r28
 50c:	1f 91       	pop	r17
 50e:	08 95       	ret
 510:	81 2f       	mov	r24, r17
 512:	f9 cf       	rjmp	.-14     	; 0x506 <_ZN8Keyboard8GetEventEv+0x5a>

00000514 <main>:
 514:	cf 93       	push	r28
 516:	df 93       	push	r29
 518:	cd b7       	in	r28, 0x3d	; 61
 51a:	de b7       	in	r29, 0x3e	; 62
 51c:	a3 97       	sbiw	r28, 0x23	; 35
 51e:	0f b6       	in	r0, 0x3f	; 63
 520:	f8 94       	cli
 522:	de bf       	out	0x3e, r29	; 62
 524:	0f be       	out	0x3f, r0	; 63
 526:	cd bf       	out	0x3d, r28	; 61
 528:	ce 01       	movw	r24, r28
 52a:	01 96       	adiw	r24, 0x01	; 1
 52c:	fa de       	rcall	.-524    	; 0x322 <_ZN8IntervalC1Ev>
 52e:	be 01       	movw	r22, r28
 530:	6f 5f       	subi	r22, 0xFF	; 255
 532:	7f 4f       	sbci	r23, 0xFF	; 255
 534:	ce 01       	movw	r24, r28
 536:	4d 96       	adiw	r24, 0x1d	; 29
 538:	5f de       	rcall	.-834    	; 0x1f8 <_ZN7DisplayC1EP8Interval>
 53a:	be 01       	movw	r22, r28
 53c:	6f 5f       	subi	r22, 0xFF	; 255
 53e:	7f 4f       	sbci	r23, 0xFF	; 255
 540:	ce 01       	movw	r24, r28
 542:	45 96       	adiw	r24, 0x15	; 21
 544:	8f df       	rcall	.-226    	; 0x464 <_ZN8KeyboardC1EP8Interval>
 546:	10 e0       	ldi	r17, 0x00	; 0
 548:	8f e0       	ldi	r24, 0x0F	; 15
 54a:	f8 2e       	mov	r15, r24
 54c:	ce 01       	movw	r24, r28
 54e:	45 96       	adiw	r24, 0x15	; 21
 550:	ad df       	rcall	.-166    	; 0x4ac <_ZN8Keyboard8GetEventEv>
 552:	38 2f       	mov	r19, r24
 554:	80 7f       	andi	r24, 0xF0	; 240
 556:	d1 f3       	breq	.-12     	; 0x54c <main+0x38>
 558:	81 2f       	mov	r24, r17
 55a:	6f 2d       	mov	r22, r15
 55c:	2b d0       	rcall	.+86     	; 0x5b4 <__udivmodqi4>
 55e:	00 e0       	ldi	r16, 0x00	; 0
 560:	23 2f       	mov	r18, r19
 562:	22 95       	swap	r18
 564:	2f 70       	andi	r18, 0x0F	; 15
 566:	48 2f       	mov	r20, r24
 568:	69 2f       	mov	r22, r25
 56a:	ce 01       	movw	r24, r28
 56c:	4d 96       	adiw	r24, 0x1d	; 29
 56e:	3b a3       	std	Y+35, r19	; 0x23
 570:	55 de       	rcall	.-854    	; 0x21c <_ZN7Display7PutCharEhhhh>
 572:	1f 5f       	subi	r17, 0xFF	; 255
 574:	3b a1       	ldd	r19, Y+35	; 0x23
 576:	1e 31       	cpi	r17, 0x1E	; 30
 578:	08 f0       	brcs	.+2      	; 0x57c <main+0x68>
 57a:	10 e0       	ldi	r17, 0x00	; 0
 57c:	23 2f       	mov	r18, r19
 57e:	2f 70       	andi	r18, 0x0F	; 15
 580:	81 2f       	mov	r24, r17
 582:	6f 2d       	mov	r22, r15
 584:	17 d0       	rcall	.+46     	; 0x5b4 <__udivmodqi4>
 586:	00 e0       	ldi	r16, 0x00	; 0
 588:	48 2f       	mov	r20, r24
 58a:	69 2f       	mov	r22, r25
 58c:	ce 01       	movw	r24, r28
 58e:	4d 96       	adiw	r24, 0x1d	; 29
 590:	45 de       	rcall	.-886    	; 0x21c <_ZN7Display7PutCharEhhhh>
 592:	1f 5f       	subi	r17, 0xFF	; 255
 594:	1e 31       	cpi	r17, 0x1E	; 30
 596:	d0 f2       	brcs	.-76     	; 0x54c <main+0x38>
 598:	10 e0       	ldi	r17, 0x00	; 0
 59a:	d8 cf       	rjmp	.-80     	; 0x54c <main+0x38>

0000059c <__umulhisi3>:
 59c:	a2 9f       	mul	r26, r18
 59e:	b0 01       	movw	r22, r0
 5a0:	b3 9f       	mul	r27, r19
 5a2:	c0 01       	movw	r24, r0
 5a4:	a3 9f       	mul	r26, r19
 5a6:	01 d0       	rcall	.+2      	; 0x5aa <__umulhisi3+0xe>
 5a8:	b2 9f       	mul	r27, r18
 5aa:	70 0d       	add	r23, r0
 5ac:	81 1d       	adc	r24, r1
 5ae:	11 24       	eor	r1, r1
 5b0:	91 1d       	adc	r25, r1
 5b2:	08 95       	ret

000005b4 <__udivmodqi4>:
 5b4:	99 1b       	sub	r25, r25
 5b6:	79 e0       	ldi	r23, 0x09	; 9
 5b8:	04 c0       	rjmp	.+8      	; 0x5c2 <__udivmodqi4_ep>

000005ba <__udivmodqi4_loop>:
 5ba:	99 1f       	adc	r25, r25
 5bc:	96 17       	cp	r25, r22
 5be:	08 f0       	brcs	.+2      	; 0x5c2 <__udivmodqi4_ep>
 5c0:	96 1b       	sub	r25, r22

000005c2 <__udivmodqi4_ep>:
 5c2:	88 1f       	adc	r24, r24
 5c4:	7a 95       	dec	r23
 5c6:	c9 f7       	brne	.-14     	; 0x5ba <__udivmodqi4_loop>
 5c8:	80 95       	com	r24
 5ca:	08 95       	ret

000005cc <__udivmodhi4>:
 5cc:	aa 1b       	sub	r26, r26
 5ce:	bb 1b       	sub	r27, r27
 5d0:	51 e1       	ldi	r21, 0x11	; 17
 5d2:	07 c0       	rjmp	.+14     	; 0x5e2 <__udivmodhi4_ep>

000005d4 <__udivmodhi4_loop>:
 5d4:	aa 1f       	adc	r26, r26
 5d6:	bb 1f       	adc	r27, r27
 5d8:	a6 17       	cp	r26, r22
 5da:	b7 07       	cpc	r27, r23
 5dc:	10 f0       	brcs	.+4      	; 0x5e2 <__udivmodhi4_ep>
 5de:	a6 1b       	sub	r26, r22
 5e0:	b7 0b       	sbc	r27, r23

000005e2 <__udivmodhi4_ep>:
 5e2:	88 1f       	adc	r24, r24
 5e4:	99 1f       	adc	r25, r25
 5e6:	5a 95       	dec	r21
 5e8:	a9 f7       	brne	.-22     	; 0x5d4 <__udivmodhi4_loop>
 5ea:	80 95       	com	r24
 5ec:	90 95       	com	r25
 5ee:	bc 01       	movw	r22, r24
 5f0:	cd 01       	movw	r24, r26
 5f2:	08 95       	ret

000005f4 <__udivmodsi4>:
 5f4:	a1 e2       	ldi	r26, 0x21	; 33
 5f6:	1a 2e       	mov	r1, r26
 5f8:	aa 1b       	sub	r26, r26
 5fa:	bb 1b       	sub	r27, r27
 5fc:	fd 01       	movw	r30, r26
 5fe:	0d c0       	rjmp	.+26     	; 0x61a <__udivmodsi4_ep>

00000600 <__udivmodsi4_loop>:
 600:	aa 1f       	adc	r26, r26
 602:	bb 1f       	adc	r27, r27
 604:	ee 1f       	adc	r30, r30
 606:	ff 1f       	adc	r31, r31
 608:	a2 17       	cp	r26, r18
 60a:	b3 07       	cpc	r27, r19
 60c:	e4 07       	cpc	r30, r20
 60e:	f5 07       	cpc	r31, r21
 610:	20 f0       	brcs	.+8      	; 0x61a <__udivmodsi4_ep>
 612:	a2 1b       	sub	r26, r18
 614:	b3 0b       	sbc	r27, r19
 616:	e4 0b       	sbc	r30, r20
 618:	f5 0b       	sbc	r31, r21

0000061a <__udivmodsi4_ep>:
 61a:	66 1f       	adc	r22, r22
 61c:	77 1f       	adc	r23, r23
 61e:	88 1f       	adc	r24, r24
 620:	99 1f       	adc	r25, r25
 622:	1a 94       	dec	r1
 624:	69 f7       	brne	.-38     	; 0x600 <__udivmodsi4_loop>
 626:	60 95       	com	r22
 628:	70 95       	com	r23
 62a:	80 95       	com	r24
 62c:	90 95       	com	r25
 62e:	9b 01       	movw	r18, r22
 630:	ac 01       	movw	r20, r24
 632:	bd 01       	movw	r22, r26
 634:	cf 01       	movw	r24, r30
 636:	08 95       	ret

00000638 <_exit>:
 638:	f8 94       	cli

0000063a <__stop_program>:
 63a:	ff cf       	rjmp	.-2      	; 0x63a <__stop_program>
